<?xml version="1.0"?>
<?xml-stylesheet type="text/xsl" href="pdml2html.xsl"?>
<!-- You can find pdml2html.xsl in /usr/share/wireshark or at http://anonsvn.wireshark.org/trunk/wireshark/pdml2html.xsl. -->
<pdml version="0" creator="wireshark/1.12.1" time="Wed Jun 22 12:38:59 2016" capture_file="/home/papachappa/Загрузки/on.pcap">
<packet>
  <proto name="geninfo" pos="0" showname="General information" size="1066">
    <field name="num" pos="0" show="1295" showname="Number" value="50f" size="1066"/>
    <field name="len" pos="0" show="1066" showname="Frame Length" value="42a" size="1066"/>
    <field name="caplen" pos="0" show="1066" showname="Captured Length" value="42a" size="1066"/>
    <field name="timestamp" pos="0" show="Jan  4, 2013 08:45:22.098523000 MSK" showname="Captured Time" value="1357274722.098523000" size="1066"/>
  </proto>
  <proto name="frame" showname="Frame 1295: 1066 bytes on wire (8528 bits), 1066 bytes captured (8528 bits)" size="1066" pos="0">
    <field name="frame.encap_type" showname="Encapsulation type: Ethernet (1)" size="0" pos="0" show="1"/>
    <field name="frame.time" showname="Arrival Time: Jan  4, 2013 08:45:22.098523000 MSK" size="0" pos="0" show="Jan  4, 2013 08:45:22.098523000 MSK"/>
    <field name="frame.offset_shift" showname="Time shift for this packet: 0.000000000 seconds" size="0" pos="0" show="0.000000000"/>
    <field name="frame.time_epoch" showname="Epoch Time: 1357274722.098523000 seconds" size="0" pos="0" show="1357274722.098523000"/>
    <field name="frame.time_delta" showname="Time delta from previous captured frame: 0.016052000 seconds" size="0" pos="0" show="0.016052000"/>
    <field name="frame.time_delta_displayed" showname="Time delta from previous displayed frame: 0.016052000 seconds" size="0" pos="0" show="0.016052000"/>
    <field name="frame.time_relative" showname="Time since reference or first frame: 26.597705000 seconds" size="0" pos="0" show="26.597705000"/>
    <field name="frame.number" showname="Frame Number: 1295" size="0" pos="0" show="1295"/>
    <field name="frame.len" showname="Frame Length: 1066 bytes (8528 bits)" size="0" pos="0" show="1066"/>
    <field name="frame.cap_len" showname="Capture Length: 1066 bytes (8528 bits)" size="0" pos="0" show="1066"/>
    <field name="frame.marked" showname="Frame is marked: False" size="0" pos="0" show="0"/>
    <field name="frame.ignored" showname="Frame is ignored: False" size="0" pos="0" show="0"/>
    <field name="frame.protocols" showname="Protocols in frame: eth:ethertype:ip:udp:rtp" size="0" pos="0" show="eth:ethertype:ip:udp:rtp"/>
    <field name="frame.coloring_rule.name" showname="Coloring Rule Name: UDP" size="0" pos="0" show="UDP"/>
    <field name="frame.coloring_rule.string" showname="Coloring Rule String: udp" size="0" pos="0" show="udp"/>
  </proto>
  <proto name="eth" showname="Ethernet II, Src: Wiznet_15:ce:e3 (00:08:dc:15:ce:e3), Dst: Dell_e7:b6:7e (bc:30:5b:e7:b6:7e)" size="14" pos="0">
    <field name="eth.dst" showname="Destination: Dell_e7:b6:7e (bc:30:5b:e7:b6:7e)" size="6" pos="0" show="bc:30:5b:e7:b6:7e" value="bc305be7b67e">
      <field name="eth.dst_resolved" showname="Destination (resolved): Dell_e7:b6:7e" hide="yes" size="6" pos="0" show="Dell_e7:b6:7e" value="bc305be7b67e"/>
      <field name="eth.addr" showname="Address: Dell_e7:b6:7e (bc:30:5b:e7:b6:7e)" size="6" pos="0" show="bc:30:5b:e7:b6:7e" value="bc305be7b67e"/>
      <field name="eth.addr_resolved" showname="Address (resolved): Dell_e7:b6:7e" hide="yes" size="6" pos="0" show="Dell_e7:b6:7e" value="bc305be7b67e"/>
      <field name="eth.lg" showname=".... ..0. .... .... .... .... = LG bit: Globally unique address (factory default)" size="3" pos="0" show="0" value="0" unmaskedvalue="bc305b"/>
      <field name="eth.ig" showname=".... ...0 .... .... .... .... = IG bit: Individual address (unicast)" size="3" pos="0" show="0" value="0" unmaskedvalue="bc305b"/>
    </field>
    <field name="eth.src" showname="Source: Wiznet_15:ce:e3 (00:08:dc:15:ce:e3)" size="6" pos="6" show="00:08:dc:15:ce:e3" value="0008dc15cee3">
      <field name="eth.src_resolved" showname="Source (resolved): Wiznet_15:ce:e3" hide="yes" size="6" pos="6" show="Wiznet_15:ce:e3" value="0008dc15cee3"/>
      <field name="eth.addr" showname="Address: Wiznet_15:ce:e3 (00:08:dc:15:ce:e3)" size="6" pos="6" show="00:08:dc:15:ce:e3" value="0008dc15cee3"/>
      <field name="eth.addr_resolved" showname="Address (resolved): Wiznet_15:ce:e3" hide="yes" size="6" pos="6" show="Wiznet_15:ce:e3" value="0008dc15cee3"/>
      <field name="eth.lg" showname=".... ..0. .... .... .... .... = LG bit: Globally unique address (factory default)" size="3" pos="6" show="0" value="0" unmaskedvalue="0008dc"/>
      <field name="eth.ig" showname=".... ...0 .... .... .... .... = IG bit: Individual address (unicast)" size="3" pos="6" show="0" value="0" unmaskedvalue="0008dc"/>
    </field>
    <field name="eth.type" showname="Type: IP (0x0800)" size="2" pos="12" show="2048" value="0800"/>
  </proto>
  <proto name="ip" showname="Internet Protocol Version 4, Src: 192.168.1.200 (192.168.1.200), Dst: 192.168.1.202 (192.168.1.202)" size="20" pos="14">
    <field name="ip.version" showname="Version: 4" size="1" pos="14" show="4" value="45"/>
    <field name="ip.hdr_len" showname="Header Length: 20 bytes" size="1" pos="14" show="20" value="45"/>
    <field name="ip.dsfield" showname="Differentiated Services Field: 0x00 (DSCP 0x00: Default; ECN: 0x00: Not-ECT (Not ECN-Capable Transport))" size="1" pos="15" show="0" value="00">
      <field name="ip.dsfield.dscp" showname="0000 00.. = Differentiated Services Codepoint: Default (0x00)" size="1" pos="15" show="0" value="0" unmaskedvalue="00"/>
      <field name="ip.dsfield.ecn" showname=".... ..00 = Explicit Congestion Notification: Not-ECT (Not ECN-Capable Transport) (0x00)" size="1" pos="15" show="0" value="0" unmaskedvalue="00"/>
    </field>
    <field name="ip.len" showname="Total Length: 1052" size="2" pos="16" show="1052" value="041c"/>
    <field name="ip.id" showname="Identification: 0x04ac (1196)" size="2" pos="18" show="1196" value="04ac"/>
    <field name="ip.flags" showname="Flags: 0x02 (Don&apos;t Fragment)" size="1" pos="20" show="2" value="40">
      <field name="ip.flags.rb" showname="0... .... = Reserved bit: Not set" size="1" pos="20" show="0" value="40"/>
      <field name="ip.flags.df" showname=".1.. .... = Don&apos;t fragment: Set" size="1" pos="20" show="1" value="40"/>
      <field name="ip.flags.mf" showname="..0. .... = More fragments: Not set" size="1" pos="20" show="0" value="40"/>
    </field>
    <field name="ip.frag_offset" showname="Fragment offset: 0" size="2" pos="20" show="0" value="4000"/>
    <field name="ip.ttl" showname="Time to live: 128" size="1" pos="22" show="128" value="80"/>
    <field name="ip.proto" showname="Protocol: UDP (17)" size="1" pos="23" show="17" value="11"/>
    <field name="ip.checksum" showname="Header checksum: 0x6d42 [validation disabled]" size="2" pos="24" show="27970" value="6d42">
      <field name="ip.checksum_good" showname="Good: False" size="2" pos="24" show="0" value="6d42"/>
      <field name="ip.checksum_bad" showname="Bad: False" size="2" pos="24" show="0" value="6d42"/>
    </field>
    <field name="ip.src" showname="Source: 192.168.1.200 (192.168.1.200)" size="4" pos="26" show="192.168.1.200" value="c0a801c8"/>
    <field name="ip.addr" showname="Source or Destination Address: 192.168.1.200 (192.168.1.200)" hide="yes" size="4" pos="26" show="192.168.1.200" value="c0a801c8"/>
    <field name="ip.src_host" showname="Source Host: 192.168.1.200" hide="yes" size="4" pos="26" show="192.168.1.200" value="c0a801c8"/>
    <field name="ip.host" showname="Source or Destination Host: 192.168.1.200" hide="yes" size="4" pos="26" show="192.168.1.200" value="c0a801c8"/>
    <field name="ip.dst" showname="Destination: 192.168.1.202 (192.168.1.202)" size="4" pos="30" show="192.168.1.202" value="c0a801ca"/>
    <field name="ip.addr" showname="Source or Destination Address: 192.168.1.202 (192.168.1.202)" hide="yes" size="4" pos="30" show="192.168.1.202" value="c0a801ca"/>
    <field name="ip.dst_host" showname="Destination Host: 192.168.1.202" hide="yes" size="4" pos="30" show="192.168.1.202" value="c0a801ca"/>
    <field name="ip.host" showname="Source or Destination Host: 192.168.1.202" hide="yes" size="4" pos="30" show="192.168.1.202" value="c0a801ca"/>
    <field name="" show="Source GeoIP: Unknown" size="4" pos="26" value="c0a801c8"/>
    <field name="" show="Destination GeoIP: Unknown" size="4" pos="30" value="c0a801ca"/>
  </proto>
  <proto name="udp" showname="User Datagram Protocol, Src Port: 8 (8), Dst Port: 8080 (8080)" size="8" pos="34">
    <field name="udp.srcport" showname="Source Port: 8 (8)" size="2" pos="34" show="8" value="0008"/>
    <field name="udp.dstport" showname="Destination Port: 8080 (8080)" size="2" pos="36" show="8080" value="1f90"/>
    <field name="udp.port" showname="Source or Destination Port: 8" hide="yes" size="2" pos="34" show="8" value="0008"/>
    <field name="udp.port" showname="Source or Destination Port: 8080" hide="yes" size="2" pos="36" show="8080" value="1f90"/>
    <field name="udp.length" showname="Length: 1032" size="2" pos="38" show="1032" value="0408"/>
    <field name="udp.checksum_coverage" showname="Checksum coverage: 1032" hide="yes" size="0" pos="38" show="1032"/>
    <field name="udp.checksum" showname="Checksum: 0x07f5 [validation disabled]" size="2" pos="40" show="2037" value="07f5">
      <field name="udp.checksum_good" showname="Good Checksum: False" size="2" pos="40" show="0" value="07f5"/>
      <field name="udp.checksum_bad" showname="Bad Checksum: False" size="2" pos="40" show="0" value="07f5"/>
    </field>
    <field name="udp.stream" showname="Stream index: 6" size="0" pos="42" show="6"/>
  </proto>
  <proto name="rtp" showname="Real-Time Transport Protocol" size="1024" pos="42">
    <field name="rtp.version" showname="10.. .... = Version: RFC 1889 Version (2)" size="1" pos="42" show="2" value="2" unmaskedvalue="aa"/>
    <field name="rtp.padding" showname="..1. .... = Padding: True" size="1" pos="42" show="1" value="1" unmaskedvalue="aa"/>
    <field name="rtp.ext" showname="...0 .... = Extension: False" size="1" pos="42" show="0" value="0" unmaskedvalue="aa"/>
    <field name="rtp.cc" showname=".... 1010 = Contributing source identifiers count: 10" size="1" pos="42" show="10" value="A" unmaskedvalue="aa"/>
    <field name="rtp.marker" showname="1... .... = Marker: True" size="1" pos="43" show="1" value="1" unmaskedvalue="84"/>
    <field name="rtp.p_type" showname="Payload type: ITU-T G.723 (4)" size="1" pos="43" show="4" value="4" unmaskedvalue="84"/>
    <field name="rtp.seq" showname="Sequence number: 781" size="2" pos="46" show="781" value="030d"/>
    <field name="rtp.timestamp" showname="Timestamp: 187440" size="4" pos="48" show="187440" value="0002dc30"/>
    <field name="rtp.ssrc" showname="Synchronization Source identifier: 0x43f6af95 (1140240277)" size="4" pos="50" show="1140240277" value="43f6af95"/>
    <field name="rtp.csrc.items" showname="Contributing Source identifiers (10 items)" size="40" pos="54" show="" value="">
      <field name="rtp.csrc.item" showname="CSRC item 0: 0xDE93B269" size="4" pos="54" show="3734221417" value="de93b269"/>
      <field name="rtp.csrc.item" showname="CSRC item 1: 0xC9B0D3E2" size="4" pos="58" show="3383808994" value="c9b0d3e2"/>
      <field name="rtp.csrc.item" showname="CSRC item 2: 0xB471ED90" size="4" pos="62" show="3027365264" value="b471ed90"/>
      <field name="rtp.csrc.item" showname="CSRC item 3: 0x1F043D6B" size="4" pos="66" show="520371563" value="1f043d6b"/>
      <field name="rtp.csrc.item" showname="CSRC item 4: 0x99ABC158" size="4" pos="70" show="2578170200" value="99abc158"/>
      <field name="rtp.csrc.item" showname="CSRC item 5: 0x887C25A6" size="4" pos="74" show="2289837478" value="887c25a6"/>
      <field name="rtp.csrc.item" showname="CSRC item 6: 0xF814307E" size="4" pos="78" show="4162072702" value="f814307e"/>
      <field name="rtp.csrc.item" showname="CSRC item 7: 0xB8300F99" size="4" pos="82" show="3090157465" value="b8300f99"/>
      <field name="rtp.csrc.item" showname="CSRC item 8: 0x5042F4C0" size="4" pos="86" show="1346565312" value="5042f4c0"/>
      <field name="rtp.csrc.item" showname="CSRC item 9: 0xAC32D8A9" size="4" pos="90" show="2889013417" value="ac32d8a9"/>
    </field>
    <field name="rtp.payload" showname="Payload: a2f0195894582c607e2b2c0ab15d0b17ae6d7d4a6160fd4e..." size="757" pos="94" show="a2:f0:19:58:94:58:2c:60:7e:2b:2c:0a:b1:5d:0b:17:ae:6d:7d:4a:61:60:fd:4e:9c:a0:62:d1:58:bc:21:68:83:f2:35:0b:18:05:b7:63:a5:80:61:a1:c9:69:93:3a:96:34:c4:c8:37:7a:65:d0:f9:05:83:73:23:05:ab:43:0d:e6:51:18:4c:2f:4b:e5:7a:28:85:0a:45:af:e0:8e:19:6c:af:d8:2d:96:0a:81:78:01:ea:8b:82:0b:45:e0:70:20:e0:7c:ce:40:30:ae:f0:3d:cd:5b:3f:35:12:d6:f2:9a:a4:68:4f:23:78:52:12:c1:08:7c:23:fa:08:2d:15:ce:95:c2:55:ac:28:7b:7f:7a:71:d5:43:cd:83:b4:19:90:61:f0:f4:14:83:b6:fc:dd:da:c7:6d:6b:e8:2b:9f:c1:24:12:80:7c:18:0e:7f:e3:e6:c7:43:ff:c1:2c:75:ee:82:98:b6:03:15:f9:80:60:21:ad:88:a5:80:c8:34:6f:c5:a9:38:39:41:87:a0:c1:02:81:c2:d4:a9:07:21:f7:41:91:33:29:6e:2e:8e:6a:2a:4b:16:e0:2d:e7:bd:ce:f0:89:f5:9e:f2:10:b2:b0:78:08:29:c3:a2:f2:80:93:c8:3c:04:14:a0:c8:8b:c6:41:37:89:81:21:87:a0:f8:7f:fb:b5:26:24:83:81:4e:d8:c8:32:74:40:ee:03:15:fc:17:c9:85:86:2a:a0:63:05:05:a7:06:46:2d:6f:83:08:6b:01:c6:c3:53:06:41:49:f0:78:2f:f9:4b:a0:2d:f0:30:06:ce:02:03:34:37:c0:9c:d0:32:af:83:c1:7f:be:90:1f:1f:ff:b1:56:97:f3:e2:50:2f:85:10:29:6f:67:41:56:8c:81:a7:e8:e5:95:c1:90:7c:18:28:82:ce:2b:10:44:43:ca:b7:94:18:ad:9e:95:08:1f:06:0c:9f:84:a2:bd:87:9b:aa:cd:a0:1e:ad:a4:20:ab:a0:c1:4d:0f:ae:e0:f9:20:31:43:40:c1:93:96:4b:f0:78:2f:f1:7b:e4:25:e0:c1:3c:17:40:60:30:98:18:a3:c1:41:29:f2:f9:a0:b9:f3:ea:5e:df:bb:67:16:23:86:01:22:79:b6:b9:35:50:e1:f9:4e:aa:78:02:1a:61:a2:16:60:14:60:5a:87:93:4a:b4:5b:ea:e5:80:f8:30:85:a9:4b:c3:ff:13:e9:0f:04:ad:30:ad:33:72:9c:ad:8b:07:80:d8:db:4c:4c:26:05:18:38:14:41:7f:87:e1:8b:a5:ae:5d:dd:a7:58:b7:84:0d:a8:d8:42:d1:f1:5f:cc:2c:9f:9a:bf:23:95:05:18:16:30:18:9b:04:8a:c0:7b:cf:be:ab:66:c0:f2:10:b6:78:86:8c:32:19:c8:41:4f:ab:9a:e5:b0:46:5c:18:70:3d:ab:87:cd:f0:50:83:01:08:bd:1d:6b:61:49:c3:2a:76:97:2b:83:54:8c:7e:f1:67:b6:a6:32:b6:12:ba:af:f8:b5:06:13:36:0b:ac:2a:bd:28:a6:c9:1f:49:d3:7d:01:03:7b:f1:e9:b0:e2:69:34:ba:c6:d7:72:c5:cb:96:f8:64:12:61:e0:88:48:46:9a:81:c0:fe:9a:fc:58:64:75:5e:63:6b:31:fe:8f:99:f0:8b:80:9e:27:05:08:e8:ae:a7:69:10:8b:0d:3d:76:ed:48:95:48:14:64:8c:5c:07:41:58:ae:a1:69:b1:a5:c3:64:f7:e1:41:63:b5:c8:8d:e2:92:72:69:52:28:fa:9f:22:7a:93:ce:86:3a:c6:4c:29:36:f2:ff:6c:f2:39:38:e3:2c:e9:d2:f6:ed:a2:b7:85:d0:3d:62:af:5d:79:31:23:c0:2d:6f:81:44:d8:85:19:e5:8e:86:1b:1a:a4:67:52:b6:5b:51:02:50:91:82:ac:3f:03:af:46:a6:66:2e:fb:c0:de:a9:a1" value="a2f0195894582c607e2b2c0ab15d0b17ae6d7d4a6160fd4e9ca062d158bc216883f2350b1805b763a58061a1c969933a9634c4c8377a65d0f90583732305ab430de651184c2f4be57a28850a45afe08e196cafd82d960a817801ea8b820b45e07020e07cce4030aef03dcd5b3f3512d6f29aa4684f23785212c1087c23fa082d15ce95c255ac287b7f7a71d543cd83b4199061f0f41483b6fcdddac76d6be82b9fc12412807c180e7fe3e6c743ffc12c75ee8298b60315f9806021ad88a580c8346fc5a938394187a0c10281c2d4a90721f7419133296e2e8e6a2a4b16e02de7bdcef089f59ef210b2b0780829c3a2f28093c83c0414a0c88bc6413789812187a0f87ffbb5262483814ed8c8327440ee0315fc17c985862aa0630505a706462d6f83086b01c6c353064149f0782ff94ba02df03006ce02033437c09cd032af83c17fbe901f1fffb15697f3e2502f8510296f6741568c81a7e8e595c1907c182882ce2b104443cab79418ad9e95081f060c9f84a2bd879baacda01eada420aba0c14d0faee0f920314340c193964bf0782ff17be425e0c13c174060309818a3c14129f2f9a0b9f3ea5edfbb67162386012279b6b93550e1f94eaa78021a61a2166014605a87934ab45beae580f83085a94bc3ff13e90f04ad30ad33729cad8b0780d8db4c4c2605183814417f87e18ba5ae5ddda758b7840da8d842d1f15fcc2c9f9abf239505181630189b048ac07bcfbeab66c0f210b678868c3219c8414fab9ae5b0465c18703dab87cdf050830108bd1d6b6149c32a76972b83548c7ef167b6a632b612baaff8b50613360bac2abd28a6c91f49d37d01037bf1e9b0e26934bac6d772c5cb96f8641261e08848469a81c0fe9afc5864755e636b31fe8f99f08b809e270508e8aea769108b0d3d76ed48954814648c5c074158aea169b1a5c364f7e14163b5c88de29272695228fa9f227a93ce863ac64c2936f2ff6cf23938e32ce9d2f6eda2b785d03d62af5d793123c02d6f8144d88519e58e861b1aa46752b65b5102509182ac3f03af46a6662efbc0dea9a1"/>
    <field name="rtp.padding.data" showname="Padding data: 41a9c2a2058dfe8c5e8fb38b93a59710d3b18746b4e15275..." size="214" pos="851" show="41:a9:c2:a2:05:8d:fe:8c:5e:8f:b3:8b:93:a5:97:10:d3:b1:87:46:b4:e1:52:75:ed:49:48:78:5b:27:94:bf:ed:51:82:73:5e:4c:59:cd:01:19:5b:42:08:08:02:ec:10:c1:95:08:c2:4a:4f:a6:1f:b5:3f:36:71:11:3a:42:6b:e3:f0:73:62:ce:31:41:f6:a0:d0:10:81:82:04:06:54:ca:ba:3e:2b:48:dd:35:25:84:96:40:a5:84:0d:62:1e:39:f0:85:e4:e2:22:82:57:0d:2a:1e:96:2d:a4:42:ca:c7:c3:9b:d8:46:d5:03:f0:61:bf:c5:31:25:f0:19:7f:8a:52:0b:19:8a:06:0c:22:b0:2e:65:b6:0c:08:7a:a0:10:bf:75:11:6c:0c:9f:c1:80:e0:30:2b:42:0f:72:01:61:6d:83:c0:7e:fe:9a:b6:0c:d3:6a:2f:38:df:86:71:73:e2:10:78:08:1c:40:f3:43:e2:e8:5f:2f:74:2f:6f:6a:85:57:43:7e:0d:45:fe:98:73:b6:86:c1:93:db:4d:4a:d3:b0:e4:0f" value="41a9c2a2058dfe8c5e8fb38b93a59710d3b18746b4e15275ed4948785b2794bfed5182735e4c59cd01195b42080802ec10c19508c24a4fa61fb53f3671113a426be3f07362ce3141f6a0d0108182040654caba3e2b48dd3525849640a5840d621e39f085e4e22282570d2a1e962da442cac7c39bd846d503f061bfc53125f0197f8a520b198a060c22b02e65b60c087aa010bf75116c0c9fc180e0302b420f7201616d83c07efe9ab60cd36a2f38df867173e21078081c40f343e2e85f2f742f6f6a8557437e0d45fe9873b686c193db4d4ad3b0e40f"/>
    <field name="rtp.padding.count" showname="Padding count: 215" size="1" pos="1065" show="215" value="d7"/>
  </proto>
</packet>


<packet>
  <proto name="geninfo" pos="0" showname="General information" size="1066">
    <field name="num" pos="0" show="1295" showname="Number" value="50f" size="1066"/>
    <field name="len" pos="0" show="1066" showname="Frame Length" value="42a" size="1066"/>
    <field name="caplen" pos="0" show="1066" showname="Captured Length" value="42a" size="1066"/>
    <field name="timestamp" pos="0" show="Jan  4, 2013 08:45:22.098523000 MSK" showname="Captured Time" value="1357274722.098523000" size="1066"/>
  </proto>
  <proto name="frame" showname="Frame 1295: 1066 bytes on wire (8528 bits), 1066 bytes captured (8528 bits)" size="1066" pos="0">
    <field name="frame.encap_type" showname="Encapsulation type: Ethernet (1)" size="0" pos="0" show="1"/>
    <field name="frame.time" showname="Arrival Time: Jan  4, 2013 08:45:22.098523000 MSK" size="0" pos="0" show="Jan  4, 2013 08:45:22.098523000 MSK"/>
    <field name="frame.offset_shift" showname="Time shift for this packet: 0.000000000 seconds" size="0" pos="0" show="0.000000000"/>
    <field name="frame.time_epoch" showname="Epoch Time: 1357274722.098523000 seconds" size="0" pos="0" show="1357274722.098523000"/>
    <field name="frame.time_delta" showname="Time delta from previous captured frame: 0.016052000 seconds" size="0" pos="0" show="0.016052000"/>
    <field name="frame.time_delta_displayed" showname="Time delta from previous displayed frame: 0.016052000 seconds" size="0" pos="0" show="0.016052000"/>
    <field name="frame.time_relative" showname="Time since reference or first frame: 26.597705000 seconds" size="0" pos="0" show="26.597705000"/>
    <field name="frame.number" showname="Frame Number: 1295" size="0" pos="0" show="1295"/>
    <field name="frame.len" showname="Frame Length: 1066 bytes (8528 bits)" size="0" pos="0" show="1066"/>
    <field name="frame.cap_len" showname="Capture Length: 1066 bytes (8528 bits)" size="0" pos="0" show="1066"/>
    <field name="frame.marked" showname="Frame is marked: False" size="0" pos="0" show="0"/>
    <field name="frame.ignored" showname="Frame is ignored: False" size="0" pos="0" show="0"/>
    <field name="frame.protocols" showname="Protocols in frame: eth:ethertype:ip:udp:rtp" size="0" pos="0" show="eth:ethertype:ip:udp:rtp"/>
    <field name="frame.coloring_rule.name" showname="Coloring Rule Name: UDP" size="0" pos="0" show="UDP"/>
    <field name="frame.coloring_rule.string" showname="Coloring Rule String: udp" size="0" pos="0" show="udp"/>
  </proto>
  <proto name="eth" showname="Ethernet II, Src: Wiznet_15:ce:e3 (00:08:dc:15:ce:e3), Dst: Dell_e7:b6:7e (bc:30:5b:e7:b6:7e)" size="14" pos="0">
    <field name="eth.dst" showname="Destination: Dell_e7:b6:7e (bc:30:5b:e7:b6:7e)" size="6" pos="0" show="bc:30:5b:e7:b6:7e" value="bc305be7b67e">
      <field name="eth.dst_resolved" showname="Destination (resolved): Dell_e7:b6:7e" hide="yes" size="6" pos="0" show="Dell_e7:b6:7e" value="bc305be7b67e"/>
      <field name="eth.addr" showname="Address: Dell_e7:b6:7e (bc:30:5b:e7:b6:7e)" size="6" pos="0" show="bc:30:5b:e7:b6:7e" value="bc305be7b67e"/>
      <field name="eth.addr_resolved" showname="Address (resolved): Dell_e7:b6:7e" hide="yes" size="6" pos="0" show="Dell_e7:b6:7e" value="bc305be7b67e"/>
      <field name="eth.lg" showname=".... ..0. .... .... .... .... = LG bit: Globally unique address (factory default)" size="3" pos="0" show="0" value="0" unmaskedvalue="bc305b"/>
      <field name="eth.ig" showname=".... ...0 .... .... .... .... = IG bit: Individual address (unicast)" size="3" pos="0" show="0" value="0" unmaskedvalue="bc305b"/>
    </field>
    <field name="eth.src" showname="Source: Wiznet_15:ce:e3 (00:08:dc:15:ce:e3)" size="6" pos="6" show="00:08:dc:15:ce:e3" value="0008dc15cee3">
      <field name="eth.src_resolved" showname="Source (resolved): Wiznet_15:ce:e3" hide="yes" size="6" pos="6" show="Wiznet_15:ce:e3" value="0008dc15cee3"/>
      <field name="eth.addr" showname="Address: Wiznet_15:ce:e3 (00:08:dc:15:ce:e3)" size="6" pos="6" show="00:08:dc:15:ce:e3" value="0008dc15cee3"/>
      <field name="eth.addr_resolved" showname="Address (resolved): Wiznet_15:ce:e3" hide="yes" size="6" pos="6" show="Wiznet_15:ce:e3" value="0008dc15cee3"/>
      <field name="eth.lg" showname=".... ..0. .... .... .... .... = LG bit: Globally unique address (factory default)" size="3" pos="6" show="0" value="0" unmaskedvalue="0008dc"/>
      <field name="eth.ig" showname=".... ...0 .... .... .... .... = IG bit: Individual address (unicast)" size="3" pos="6" show="0" value="0" unmaskedvalue="0008dc"/>
    </field>
    <field name="eth.type" showname="Type: IP (0x0800)" size="2" pos="12" show="2048" value="0800"/>
  </proto>
  <proto name="ip" showname="Internet Protocol Version 4, Src: 192.168.1.200 (192.168.1.200), Dst: 192.168.1.202 (192.168.1.202)" size="20" pos="14">
    <field name="ip.version" showname="Version: 4" size="1" pos="14" show="4" value="45"/>
    <field name="ip.hdr_len" showname="Header Length: 20 bytes" size="1" pos="14" show="20" value="45"/>
    <field name="ip.dsfield" showname="Differentiated Services Field: 0x00 (DSCP 0x00: Default; ECN: 0x00: Not-ECT (Not ECN-Capable Transport))" size="1" pos="15" show="0" value="00">
      <field name="ip.dsfield.dscp" showname="0000 00.. = Differentiated Services Codepoint: Default (0x00)" size="1" pos="15" show="0" value="0" unmaskedvalue="00"/>
      <field name="ip.dsfield.ecn" showname=".... ..00 = Explicit Congestion Notification: Not-ECT (Not ECN-Capable Transport) (0x00)" size="1" pos="15" show="0" value="0" unmaskedvalue="00"/>
    </field>
    <field name="ip.len" showname="Total Length: 1052" size="2" pos="16" show="1052" value="041c"/>
    <field name="ip.id" showname="Identification: 0x04ac (1196)" size="2" pos="18" show="1196" value="04ac"/>
    <field name="ip.flags" showname="Flags: 0x02 (Don&apos;t Fragment)" size="1" pos="20" show="2" value="40">
      <field name="ip.flags.rb" showname="0... .... = Reserved bit: Not set" size="1" pos="20" show="0" value="40"/>
      <field name="ip.flags.df" showname=".1.. .... = Don&apos;t fragment: Set" size="1" pos="20" show="1" value="40"/>
      <field name="ip.flags.mf" showname="..0. .... = More fragments: Not set" size="1" pos="20" show="0" value="40"/>
    </field>
    <field name="ip.frag_offset" showname="Fragment offset: 0" size="2" pos="20" show="0" value="4000"/>
    <field name="ip.ttl" showname="Time to live: 128" size="1" pos="22" show="128" value="80"/>
    <field name="ip.proto" showname="Protocol: UDP (17)" size="1" pos="23" show="17" value="11"/>
    <field name="ip.checksum" showname="Header checksum: 0x6d42 [validation disabled]" size="2" pos="24" show="27970" value="6d42">
      <field name="ip.checksum_good" showname="Good: False" size="2" pos="24" show="0" value="6d42"/>
      <field name="ip.checksum_bad" showname="Bad: False" size="2" pos="24" show="0" value="6d42"/>
    </field>
    <field name="ip.src" showname="Source: 192.168.1.200 (192.168.1.200)" size="4" pos="26" show="192.168.1.200" value="c0a801c8"/>
    <field name="ip.addr" showname="Source or Destination Address: 192.168.1.200 (192.168.1.200)" hide="yes" size="4" pos="26" show="192.168.1.200" value="c0a801c8"/>
    <field name="ip.src_host" showname="Source Host: 192.168.1.200" hide="yes" size="4" pos="26" show="192.168.1.200" value="c0a801c8"/>
    <field name="ip.host" showname="Source or Destination Host: 192.168.1.200" hide="yes" size="4" pos="26" show="192.168.1.200" value="c0a801c8"/>
    <field name="ip.dst" showname="Destination: 192.168.1.202 (192.168.1.202)" size="4" pos="30" show="192.168.1.202" value="c0a801ca"/>
    <field name="ip.addr" showname="Source or Destination Address: 192.168.1.202 (192.168.1.202)" hide="yes" size="4" pos="30" show="192.168.1.202" value="c0a801ca"/>
    <field name="ip.dst_host" showname="Destination Host: 192.168.1.202" hide="yes" size="4" pos="30" show="192.168.1.202" value="c0a801ca"/>
    <field name="ip.host" showname="Source or Destination Host: 192.168.1.202" hide="yes" size="4" pos="30" show="192.168.1.202" value="c0a801ca"/>
    <field name="" show="Source GeoIP: Unknown" size="4" pos="26" value="c0a801c8"/>
    <field name="" show="Destination GeoIP: Unknown" size="4" pos="30" value="c0a801ca"/>
  </proto>
  <proto name="udp" showname="User Datagram Protocol, Src Port: 8 (8), Dst Port: 8080 (8080)" size="8" pos="34">
    <field name="udp.srcport" showname="Source Port: 8 (8)" size="2" pos="34" show="8" value="0008"/>
    <field name="udp.dstport" showname="Destination Port: 8080 (8080)" size="2" pos="36" show="8080" value="1f90"/>
    <field name="udp.port" showname="Source or Destination Port: 8" hide="yes" size="2" pos="34" show="8" value="0008"/>
    <field name="udp.port" showname="Source or Destination Port: 8080" hide="yes" size="2" pos="36" show="8080" value="1f90"/>
    <field name="udp.length" showname="Length: 1032" size="2" pos="38" show="1032" value="0408"/>
    <field name="udp.checksum_coverage" showname="Checksum coverage: 1032" hide="yes" size="0" pos="38" show="1032"/>
    <field name="udp.checksum" showname="Checksum: 0x07f5 [validation disabled]" size="2" pos="40" show="2037" value="07f5">
      <field name="udp.checksum_good" showname="Good Checksum: False" size="2" pos="40" show="0" value="07f5"/>
      <field name="udp.checksum_bad" showname="Bad Checksum: False" size="2" pos="40" show="0" value="07f5"/>
    </field>
    <field name="udp.stream" showname="Stream index: 6" size="0" pos="42" show="6"/>
  </proto>
  <proto name="rtp" showname="Real-Time Transport Protocol" size="1024" pos="42">
    <field name="rtp.version" showname="10.. .... = Version: RFC 1889 Version (2)" size="1" pos="42" show="2" value="2" unmaskedvalue="aa"/>
    <field name="rtp.padding" showname="..1. .... = Padding: True" size="1" pos="42" show="1" value="1" unmaskedvalue="aa"/>
    <field name="rtp.ext" showname="...0 .... = Extension: False" size="1" pos="42" show="0" value="0" unmaskedvalue="aa"/>
    <field name="rtp.cc" showname=".... 1010 = Contributing source identifiers count: 10" size="1" pos="42" show="10" value="A" unmaskedvalue="aa"/>
    <field name="rtp.marker" showname="1... .... = Marker: True" size="1" pos="43" show="1" value="1" unmaskedvalue="84"/>
    <field name="rtp.p_type" showname="Payload type: ITU-T G.723 (4)" size="1" pos="43" show="4" value="4" unmaskedvalue="84"/>
    <field name="rtp.seq" showname="Sequence number: 782" size="2" pos="46" show="782" value="030e"/>
    <field name="rtp.timestamp" showname="Timestamp: 187680" size="4" pos="48" show="187680" value="0002dd20"/>
    <field name="rtp.ssrc" showname="Synchronization Source identifier: 0x43f6af95 (1140240277)" size="4" pos="50" show="1140240277" value="43f6af95"/>
    <field name="rtp.csrc.items" showname="Contributing Source identifiers (10 items)" size="40" pos="54" show="" value="">
      <field name="rtp.csrc.item" showname="CSRC item 0: 0xDE93B269" size="4" pos="54" show="3734221417" value="de93b269"/>
      <field name="rtp.csrc.item" showname="CSRC item 1: 0xC9B0D3E2" size="4" pos="58" show="3383808994" value="c9b0d3e2"/>
      <field name="rtp.csrc.item" showname="CSRC item 2: 0xB471ED90" size="4" pos="62" show="3027365264" value="b471ed90"/>
      <field name="rtp.csrc.item" showname="CSRC item 3: 0x1F043D6B" size="4" pos="66" show="520371563" value="1f043d6b"/>
      <field name="rtp.csrc.item" showname="CSRC item 4: 0x99ABC158" size="4" pos="70" show="2578170200" value="99abc158"/>
      <field name="rtp.csrc.item" showname="CSRC item 5: 0x887C25A6" size="4" pos="74" show="2289837478" value="887c25a6"/>
      <field name="rtp.csrc.item" showname="CSRC item 6: 0xF814307E" size="4" pos="78" show="4162072702" value="f814307e"/>
      <field name="rtp.csrc.item" showname="CSRC item 7: 0xB8300F99" size="4" pos="82" show="3090157465" value="b8300f99"/>
      <field name="rtp.csrc.item" showname="CSRC item 8: 0x5042F4C0" size="4" pos="86" show="1346565312" value="5042f4c0"/>
      <field name="rtp.csrc.item" showname="CSRC item 9: 0xAC32D8A9" size="4" pos="90" show="2889013417" value="ac32d8a9"/>
    </field>
    <field name="rtp.payload" showname="Payload: a2f0195894582c607e2b2c0ab15d0b17ae6d7d4a6160fd4e..." size="757" pos="94" show="a2:f0:19:58:94:58:2c:60:7e:2b:2c:0a:b1:5d:0b:17:ae:6d:7d:4a:61:60:fd:4e:9c:a0:62:d1:58:bc:21:68:83:f2:35:0b:18:05:b7:63:a5:80:61:a1:c9:69:93:3a:96:34:c4:c8:37:7a:65:d0:f9:05:83:73:23:05:ab:43:0d:e6:51:18:4c:2f:4b:e5:7a:28:85:0a:45:af:e0:8e:19:6c:af:d8:2d:96:0a:81:78:01:ea:8b:82:0b:45:e0:70:20:e0:7c:ce:40:30:ae:f0:3d:cd:5b:3f:35:12:d6:f2:9a:a4:68:4f:23:78:52:12:c1:08:7c:23:fa:08:2d:15:ce:95:c2:55:ac:28:7b:7f:7a:71:d5:43:cd:83:b4:19:90:61:f0:f4:14:83:b6:fc:dd:da:c7:6d:6b:e8:2b:9f:c1:24:12:80:7c:18:0e:7f:e3:e6:c7:43:ff:c1:2c:75:ee:82:98:b6:03:15:f9:80:60:21:ad:88:a5:80:c8:34:6f:c5:a9:38:39:41:87:a0:c1:02:81:c2:d4:a9:07:21:f7:41:91:33:29:6e:2e:8e:6a:2a:4b:16:e0:2d:e7:bd:ce:f0:89:f5:9e:f2:10:b2:b0:78:08:29:c3:a2:f2:80:93:c8:3c:04:14:a0:c8:8b:c6:41:37:89:81:21:87:a0:f8:7f:fb:b5:26:24:83:81:4e:d8:c8:32:74:40:ee:03:15:fc:17:c9:85:86:2a:a0:63:05:05:a7:06:46:2d:6f:83:08:6b:01:c6:c3:53:06:41:49:f0:78:2f:f9:4b:a0:2d:f0:30:06:ce:02:03:34:37:c0:9c:d0:32:af:83:c1:7f:be:90:1f:1f:ff:b1:56:97:f3:e2:50:2f:85:10:29:6f:67:41:56:8c:81:a7:e8:e5:95:c1:90:7c:18:28:82:ce:2b:10:44:43:ca:b7:94:18:ad:9e:95:08:1f:06:0c:9f:84:a2:bd:87:9b:aa:cd:a0:1e:ad:a4:20:ab:a0:c1:4d:0f:ae:e0:f9:20:31:43:40:c1:93:96:4b:f0:78:2f:f1:7b:e4:25:e0:c1:3c:17:40:60:30:98:18:a3:c1:41:29:f2:f9:a0:b9:f3:ea:5e:df:bb:67:16:23:86:01:22:79:b6:b9:35:50:e1:f9:4e:aa:78:02:1a:61:a2:16:60:14:60:5a:87:93:4a:b4:5b:ea:e5:80:f8:30:85:a9:4b:c3:ff:13:e9:0f:04:ad:30:ad:33:72:9c:ad:8b:07:80:d8:db:4c:4c:26:05:18:38:14:41:7f:87:e1:8b:a5:ae:5d:dd:a7:58:b7:84:0d:a8:d8:42:d1:f1:5f:cc:2c:9f:9a:bf:23:95:05:18:16:30:18:9b:04:8a:c0:7b:cf:be:ab:66:c0:f2:10:b6:78:86:8c:32:19:c8:41:4f:ab:9a:e5:b0:46:5c:18:70:3d:ab:87:cd:f0:50:83:01:08:bd:1d:6b:61:49:c3:2a:76:97:2b:83:54:8c:7e:f1:67:b6:a6:32:b6:12:ba:af:f8:b5:06:13:36:0b:ac:2a:bd:28:a6:c9:1f:49:d3:7d:01:03:7b:f1:e9:b0:e2:69:34:ba:c6:d7:72:c5:cb:96:f8:64:12:61:e0:88:48:46:9a:81:c0:fe:9a:fc:58:64:75:5e:63:6b:31:fe:8f:99:f0:8b:80:9e:27:05:08:e8:ae:a7:69:10:8b:0d:3d:76:ed:48:95:48:14:64:8c:5c:07:41:58:ae:a1:69:b1:a5:c3:64:f7:e1:41:63:b5:c8:8d:e2:92:72:69:52:28:fa:9f:22:7a:93:ce:86:3a:c6:4c:29:36:f2:ff:6c:f2:39:38:e3:2c:e9:d2:f6:ed:a2:b7:85:d0:3d:62:af:5d:79:31:23:c0:2d:6f:81:44:d8:85:19:e5:8e:86:1b:1a:a4:67:52:b6:5b:51:02:50:91:82:ac:3f:03:af:46:a6:66:2e:fb:c0:de:a9:a1" value="a2f0195894582c607e2b2c0ab15d0b17ae6d7d4a6160fd4e9ca062d158bc216883f2350b1805b763a58061a1c969933a9634c4c8377a65d0f90583732305ab430de651184c2f4be57a28850a45afe08e196cafd82d960a817801ea8b820b45e07020e07cce4030aef03dcd5b3f3512d6f29aa4684f23785212c1087c23fa082d15ce95c255ac287b7f7a71d543cd83b4199061f0f41483b6fcdddac76d6be82b9fc12412807c180e7fe3e6c743ffc12c75ee8298b60315f9806021ad88a580c8346fc5a938394187a0c10281c2d4a90721f7419133296e2e8e6a2a4b16e02de7bdcef089f59ef210b2b0780829c3a2f28093c83c0414a0c88bc6413789812187a0f87ffbb5262483814ed8c8327440ee0315fc17c985862aa0630505a706462d6f83086b01c6c353064149f0782ff94ba02df03006ce02033437c09cd032af83c17fbe901f1fffb15697f3e2502f8510296f6741568c81a7e8e595c1907c182882ce2b104443cab79418ad9e95081f060c9f84a2bd879baacda01eada420aba0c14d0faee0f920314340c193964bf0782ff17be425e0c13c174060309818a3c14129f2f9a0b9f3ea5edfbb67162386012279b6b93550e1f94eaa78021a61a2166014605a87934ab45beae580f83085a94bc3ff13e90f04ad30ad33729cad8b0780d8db4c4c2605183814417f87e18ba5ae5ddda758b7840da8d842d1f15fcc2c9f9abf239505181630189b048ac07bcfbeab66c0f210b678868c3219c8414fab9ae5b0465c18703dab87cdf050830108bd1d6b6149c32a76972b83548c7ef167b6a632b612baaff8b50613360bac2abd28a6c91f49d37d01037bf1e9b0e26934bac6d772c5cb96f8641261e08848469a81c0fe9afc5864755e636b31fe8f99f08b809e270508e8aea769108b0d3d76ed48954814648c5c074158aea169b1a5c364f7e14163b5c88de29272695228fa9f227a93ce863ac64c2936f2ff6cf23938e32ce9d2f6eda2b785d03d62af5d793123c02d6f8144d88519e58e861b1aa46752b65b5102509182ac3f03af46a6662efbc0dea9a1"/>
    <field name="rtp.padding.data" showname="Padding data: 41a9c2a2058dfe8c5e8fb38b93a59710d3b18746b4e15275..." size="214" pos="851" show="41:a9:c2:a2:05:8d:fe:8c:5e:8f:b3:8b:93:a5:97:10:d3:b1:87:46:b4:e1:52:75:ed:49:48:78:5b:27:94:bf:ed:51:82:73:5e:4c:59:cd:01:19:5b:42:08:08:02:ec:10:c1:95:08:c2:4a:4f:a6:1f:b5:3f:36:71:11:3a:42:6b:e3:f0:73:62:ce:31:41:f6:a0:d0:10:81:82:04:06:54:ca:ba:3e:2b:48:dd:35:25:84:96:40:a5:84:0d:62:1e:39:f0:85:e4:e2:22:82:57:0d:2a:1e:96:2d:a4:42:ca:c7:c3:9b:d8:46:d5:03:f0:61:bf:c5:31:25:f0:19:7f:8a:52:0b:19:8a:06:0c:22:b0:2e:65:b6:0c:08:7a:a0:10:bf:75:11:6c:0c:9f:c1:80:e0:30:2b:42:0f:72:01:61:6d:83:c0:7e:fe:9a:b6:0c:d3:6a:2f:38:df:86:71:73:e2:10:78:08:1c:40:f3:43:e2:e8:5f:2f:74:2f:6f:6a:85:57:43:7e:0d:45:fe:98:73:b6:86:c1:93:db:4d:4a:d3:b0:e4:0f" value="41a9c2a2058dfe8c5e8fb38b93a59710d3b18746b4e15275ed4948785b2794bfed5182735e4c59cd01195b42080802ec10c19508c24a4fa61fb53f3671113a426be3f07362ce3141f6a0d0108182040654caba3e2b48dd3525849640a5840d621e39f085e4e22282570d2a1e962da442cac7c39bd846d503f061bfc53125f0197f8a520b198a060c22b02e65b60c087aa010bf75116c0c9fc180e0302b420f7201616d83c07efe9ab60cd36a2f38df867173e21078081c40f343e2e85f2f742f6f6a8557437e0d45fe9873b686c193db4d4ad3b0e40f"/>
    <field name="rtp.padding.count" showname="Padding count: 215" size="1" pos="1065" show="215" value="d7"/>
  </proto>
</packet>




<packet>
  <proto name="geninfo" pos="0" showname="General information" size="1066">
    <field name="num" pos="0" show="1295" showname="Number" value="50f" size="1066"/>
    <field name="len" pos="0" show="1066" showname="Frame Length" value="42a" size="1066"/>
    <field name="caplen" pos="0" show="1066" showname="Captured Length" value="42a" size="1066"/>
    <field name="timestamp" pos="0" show="Jan  4, 2013 08:45:22.098523000 MSK" showname="Captured Time" value="1357274722.098523000" size="1066"/>
  </proto>
  <proto name="frame" showname="Frame 1295: 1066 bytes on wire (8528 bits), 1066 bytes captured (8528 bits)" size="1066" pos="0">
    <field name="frame.encap_type" showname="Encapsulation type: Ethernet (1)" size="0" pos="0" show="1"/>
    <field name="frame.time" showname="Arrival Time: Jan  4, 2013 08:45:22.098523000 MSK" size="0" pos="0" show="Jan  4, 2013 08:45:22.098523000 MSK"/>
    <field name="frame.offset_shift" showname="Time shift for this packet: 0.000000000 seconds" size="0" pos="0" show="0.000000000"/>
    <field name="frame.time_epoch" showname="Epoch Time: 1357274722.098523000 seconds" size="0" pos="0" show="1357274722.098523000"/>
    <field name="frame.time_delta" showname="Time delta from previous captured frame: 0.016052000 seconds" size="0" pos="0" show="0.016052000"/>
    <field name="frame.time_delta_displayed" showname="Time delta from previous displayed frame: 0.016052000 seconds" size="0" pos="0" show="0.016052000"/>
    <field name="frame.time_relative" showname="Time since reference or first frame: 26.597705000 seconds" size="0" pos="0" show="26.597705000"/>
    <field name="frame.number" showname="Frame Number: 1295" size="0" pos="0" show="1295"/>
    <field name="frame.len" showname="Frame Length: 1066 bytes (8528 bits)" size="0" pos="0" show="1066"/>
    <field name="frame.cap_len" showname="Capture Length: 1066 bytes (8528 bits)" size="0" pos="0" show="1066"/>
    <field name="frame.marked" showname="Frame is marked: False" size="0" pos="0" show="0"/>
    <field name="frame.ignored" showname="Frame is ignored: False" size="0" pos="0" show="0"/>
    <field name="frame.protocols" showname="Protocols in frame: eth:ethertype:ip:udp:rtp" size="0" pos="0" show="eth:ethertype:ip:udp:rtp"/>
    <field name="frame.coloring_rule.name" showname="Coloring Rule Name: UDP" size="0" pos="0" show="UDP"/>
    <field name="frame.coloring_rule.string" showname="Coloring Rule String: udp" size="0" pos="0" show="udp"/>
  </proto>
  <proto name="eth" showname="Ethernet II, Src: Wiznet_15:ce:e3 (00:08:dc:15:ce:e3), Dst: Dell_e7:b6:7e (bc:30:5b:e7:b6:7e)" size="14" pos="0">
    <field name="eth.dst" showname="Destination: Dell_e7:b6:7e (bc:30:5b:e7:b6:7e)" size="6" pos="0" show="bc:30:5b:e7:b6:7e" value="bc305be7b67e">
      <field name="eth.dst_resolved" showname="Destination (resolved): Dell_e7:b6:7e" hide="yes" size="6" pos="0" show="Dell_e7:b6:7e" value="bc305be7b67e"/>
      <field name="eth.addr" showname="Address: Dell_e7:b6:7e (bc:30:5b:e7:b6:7e)" size="6" pos="0" show="bc:30:5b:e7:b6:7e" value="bc305be7b67e"/>
      <field name="eth.addr_resolved" showname="Address (resolved): Dell_e7:b6:7e" hide="yes" size="6" pos="0" show="Dell_e7:b6:7e" value="bc305be7b67e"/>
      <field name="eth.lg" showname=".... ..0. .... .... .... .... = LG bit: Globally unique address (factory default)" size="3" pos="0" show="0" value="0" unmaskedvalue="bc305b"/>
      <field name="eth.ig" showname=".... ...0 .... .... .... .... = IG bit: Individual address (unicast)" size="3" pos="0" show="0" value="0" unmaskedvalue="bc305b"/>
    </field>
    <field name="eth.src" showname="Source: Wiznet_15:ce:e3 (00:08:dc:15:ce:e3)" size="6" pos="6" show="00:08:dc:15:ce:e3" value="0008dc15cee3">
      <field name="eth.src_resolved" showname="Source (resolved): Wiznet_15:ce:e3" hide="yes" size="6" pos="6" show="Wiznet_15:ce:e3" value="0008dc15cee3"/>
      <field name="eth.addr" showname="Address: Wiznet_15:ce:e3 (00:08:dc:15:ce:e3)" size="6" pos="6" show="00:08:dc:15:ce:e3" value="0008dc15cee3"/>
      <field name="eth.addr_resolved" showname="Address (resolved): Wiznet_15:ce:e3" hide="yes" size="6" pos="6" show="Wiznet_15:ce:e3" value="0008dc15cee3"/>
      <field name="eth.lg" showname=".... ..0. .... .... .... .... = LG bit: Globally unique address (factory default)" size="3" pos="6" show="0" value="0" unmaskedvalue="0008dc"/>
      <field name="eth.ig" showname=".... ...0 .... .... .... .... = IG bit: Individual address (unicast)" size="3" pos="6" show="0" value="0" unmaskedvalue="0008dc"/>
    </field>
    <field name="eth.type" showname="Type: IP (0x0800)" size="2" pos="12" show="2048" value="0800"/>
  </proto>
  <proto name="ip" showname="Internet Protocol Version 4, Src: 192.168.1.200 (192.168.1.200), Dst: 192.168.1.202 (192.168.1.202)" size="20" pos="14">
    <field name="ip.version" showname="Version: 4" size="1" pos="14" show="4" value="45"/>
    <field name="ip.hdr_len" showname="Header Length: 20 bytes" size="1" pos="14" show="20" value="45"/>
    <field name="ip.dsfield" showname="Differentiated Services Field: 0x00 (DSCP 0x00: Default; ECN: 0x00: Not-ECT (Not ECN-Capable Transport))" size="1" pos="15" show="0" value="00">
      <field name="ip.dsfield.dscp" showname="0000 00.. = Differentiated Services Codepoint: Default (0x00)" size="1" pos="15" show="0" value="0" unmaskedvalue="00"/>
      <field name="ip.dsfield.ecn" showname=".... ..00 = Explicit Congestion Notification: Not-ECT (Not ECN-Capable Transport) (0x00)" size="1" pos="15" show="0" value="0" unmaskedvalue="00"/>
    </field>
    <field name="ip.len" showname="Total Length: 1052" size="2" pos="16" show="1052" value="041c"/>
    <field name="ip.id" showname="Identification: 0x04ac (1196)" size="2" pos="18" show="1196" value="04ac"/>
    <field name="ip.flags" showname="Flags: 0x02 (Don&apos;t Fragment)" size="1" pos="20" show="2" value="40">
      <field name="ip.flags.rb" showname="0... .... = Reserved bit: Not set" size="1" pos="20" show="0" value="40"/>
      <field name="ip.flags.df" showname=".1.. .... = Don&apos;t fragment: Set" size="1" pos="20" show="1" value="40"/>
      <field name="ip.flags.mf" showname="..0. .... = More fragments: Not set" size="1" pos="20" show="0" value="40"/>
    </field>
    <field name="ip.frag_offset" showname="Fragment offset: 0" size="2" pos="20" show="0" value="4000"/>
    <field name="ip.ttl" showname="Time to live: 128" size="1" pos="22" show="128" value="80"/>
    <field name="ip.proto" showname="Protocol: UDP (17)" size="1" pos="23" show="17" value="11"/>
    <field name="ip.checksum" showname="Header checksum: 0x6d42 [validation disabled]" size="2" pos="24" show="27970" value="6d42">
      <field name="ip.checksum_good" showname="Good: False" size="2" pos="24" show="0" value="6d42"/>
      <field name="ip.checksum_bad" showname="Bad: False" size="2" pos="24" show="0" value="6d42"/>
    </field>
    <field name="ip.src" showname="Source: 192.168.1.200 (192.168.1.200)" size="4" pos="26" show="192.168.1.200" value="c0a801c8"/>
    <field name="ip.addr" showname="Source or Destination Address: 192.168.1.200 (192.168.1.200)" hide="yes" size="4" pos="26" show="192.168.1.200" value="c0a801c8"/>
    <field name="ip.src_host" showname="Source Host: 192.168.1.200" hide="yes" size="4" pos="26" show="192.168.1.200" value="c0a801c8"/>
    <field name="ip.host" showname="Source or Destination Host: 192.168.1.200" hide="yes" size="4" pos="26" show="192.168.1.200" value="c0a801c8"/>
    <field name="ip.dst" showname="Destination: 192.168.1.202 (192.168.1.202)" size="4" pos="30" show="192.168.1.202" value="c0a801ca"/>
    <field name="ip.addr" showname="Source or Destination Address: 192.168.1.202 (192.168.1.202)" hide="yes" size="4" pos="30" show="192.168.1.202" value="c0a801ca"/>
    <field name="ip.dst_host" showname="Destination Host: 192.168.1.202" hide="yes" size="4" pos="30" show="192.168.1.202" value="c0a801ca"/>
    <field name="ip.host" showname="Source or Destination Host: 192.168.1.202" hide="yes" size="4" pos="30" show="192.168.1.202" value="c0a801ca"/>
    <field name="" show="Source GeoIP: Unknown" size="4" pos="26" value="c0a801c8"/>
    <field name="" show="Destination GeoIP: Unknown" size="4" pos="30" value="c0a801ca"/>
  </proto>
  <proto name="udp" showname="User Datagram Protocol, Src Port: 8 (8), Dst Port: 8080 (8080)" size="8" pos="34">
    <field name="udp.srcport" showname="Source Port: 8 (8)" size="2" pos="34" show="8" value="0008"/>
    <field name="udp.dstport" showname="Destination Port: 8080 (8080)" size="2" pos="36" show="8080" value="1f90"/>
    <field name="udp.port" showname="Source or Destination Port: 8" hide="yes" size="2" pos="34" show="8" value="0008"/>
    <field name="udp.port" showname="Source or Destination Port: 8080" hide="yes" size="2" pos="36" show="8080" value="1f90"/>
    <field name="udp.length" showname="Length: 1032" size="2" pos="38" show="1032" value="0408"/>
    <field name="udp.checksum_coverage" showname="Checksum coverage: 1032" hide="yes" size="0" pos="38" show="1032"/>
    <field name="udp.checksum" showname="Checksum: 0x07f5 [validation disabled]" size="2" pos="40" show="2037" value="07f5">
      <field name="udp.checksum_good" showname="Good Checksum: False" size="2" pos="40" show="0" value="07f5"/>
      <field name="udp.checksum_bad" showname="Bad Checksum: False" size="2" pos="40" show="0" value="07f5"/>
    </field>
    <field name="udp.stream" showname="Stream index: 6" size="0" pos="42" show="6"/>
  </proto>
  <proto name="rtp" showname="Real-Time Transport Protocol" size="1024" pos="42">
    <field name="rtp.version" showname="10.. .... = Version: RFC 1889 Version (2)" size="1" pos="42" show="2" value="2" unmaskedvalue="aa"/>
    <field name="rtp.padding" showname="..1. .... = Padding: True" size="1" pos="42" show="1" value="1" unmaskedvalue="aa"/>
    <field name="rtp.ext" showname="...0 .... = Extension: False" size="1" pos="42" show="0" value="0" unmaskedvalue="aa"/>
    <field name="rtp.cc" showname=".... 1010 = Contributing source identifiers count: 10" size="1" pos="42" show="10" value="A" unmaskedvalue="aa"/>
    <field name="rtp.marker" showname="1... .... = Marker: True" size="1" pos="43" show="1" value="1" unmaskedvalue="84"/>
    <field name="rtp.p_type" showname="Payload type: ITU-T G.723 (4)" size="1" pos="43" show="4" value="4" unmaskedvalue="84"/>
    <field name="rtp.seq" showname="Sequence number: 783" size="2" pos="46" show="783" value="030f"/>
    <field name="rtp.timestamp" showname="Timestamp: 187920" size="4" pos="48" show="187920" value="0002de10"/>
    <field name="rtp.ssrc" showname="Synchronization Source identifier: 0x43f6af95 (1140240277)" size="4" pos="50" show="1140240277" value="43f6af95"/>
    <field name="rtp.csrc.items" showname="Contributing Source identifiers (10 items)" size="40" pos="54" show="" value="">
      <field name="rtp.csrc.item" showname="CSRC item 0: 0xDE93B269" size="4" pos="54" show="3734221417" value="de93b269"/>
      <field name="rtp.csrc.item" showname="CSRC item 1: 0xC9B0D3E2" size="4" pos="58" show="3383808994" value="c9b0d3e2"/>
      <field name="rtp.csrc.item" showname="CSRC item 2: 0xB471ED90" size="4" pos="62" show="3027365264" value="b471ed90"/>
      <field name="rtp.csrc.item" showname="CSRC item 3: 0x1F043D6B" size="4" pos="66" show="520371563" value="1f043d6b"/>
      <field name="rtp.csrc.item" showname="CSRC item 4: 0x99ABC158" size="4" pos="70" show="2578170200" value="99abc158"/>
      <field name="rtp.csrc.item" showname="CSRC item 5: 0x887C25A6" size="4" pos="74" show="2289837478" value="887c25a6"/>
      <field name="rtp.csrc.item" showname="CSRC item 6: 0xF814307E" size="4" pos="78" show="4162072702" value="f814307e"/>
      <field name="rtp.csrc.item" showname="CSRC item 7: 0xB8300F99" size="4" pos="82" show="3090157465" value="b8300f99"/>
      <field name="rtp.csrc.item" showname="CSRC item 8: 0x5042F4C0" size="4" pos="86" show="1346565312" value="5042f4c0"/>
      <field name="rtp.csrc.item" showname="CSRC item 9: 0xAC32D8A9" size="4" pos="90" show="2889013417" value="ac32d8a9"/>
    </field>
    <field name="rtp.payload" showname="Payload: a2f0195894582c607e2b2c0ab15d0b17ae6d7d4a6160fd4e..." size="757" pos="94" show="a2:f0:19:58:94:58:2c:60:7e:2b:2c:0a:b1:5d:0b:17:ae:6d:7d:4a:61:60:fd:4e:9c:a0:62:d1:58:bc:21:68:83:f2:35:0b:18:05:b7:63:a5:80:61:a1:c9:69:93:3a:96:34:c4:c8:37:7a:65:d0:f9:05:83:73:23:05:ab:43:0d:e6:51:18:4c:2f:4b:e5:7a:28:85:0a:45:af:e0:8e:19:6c:af:d8:2d:96:0a:81:78:01:ea:8b:82:0b:45:e0:70:20:e0:7c:ce:40:30:ae:f0:3d:cd:5b:3f:35:12:d6:f2:9a:a4:68:4f:23:78:52:12:c1:08:7c:23:fa:08:2d:15:ce:95:c2:55:ac:28:7b:7f:7a:71:d5:43:cd:83:b4:19:90:61:f0:f4:14:83:b6:fc:dd:da:c7:6d:6b:e8:2b:9f:c1:24:12:80:7c:18:0e:7f:e3:e6:c7:43:ff:c1:2c:75:ee:82:98:b6:03:15:f9:80:60:21:ad:88:a5:80:c8:34:6f:c5:a9:38:39:41:87:a0:c1:02:81:c2:d4:a9:07:21:f7:41:91:33:29:6e:2e:8e:6a:2a:4b:16:e0:2d:e7:bd:ce:f0:89:f5:9e:f2:10:b2:b0:78:08:29:c3:a2:f2:80:93:c8:3c:04:14:a0:c8:8b:c6:41:37:89:81:21:87:a0:f8:7f:fb:b5:26:24:83:81:4e:d8:c8:32:74:40:ee:03:15:fc:17:c9:85:86:2a:a0:63:05:05:a7:06:46:2d:6f:83:08:6b:01:c6:c3:53:06:41:49:f0:78:2f:f9:4b:a0:2d:f0:30:06:ce:02:03:34:37:c0:9c:d0:32:af:83:c1:7f:be:90:1f:1f:ff:b1:56:97:f3:e2:50:2f:85:10:29:6f:67:41:56:8c:81:a7:e8:e5:95:c1:90:7c:18:28:82:ce:2b:10:44:43:ca:b7:94:18:ad:9e:95:08:1f:06:0c:9f:84:a2:bd:87:9b:aa:cd:a0:1e:ad:a4:20:ab:a0:c1:4d:0f:ae:e0:f9:20:31:43:40:c1:93:96:4b:f0:78:2f:f1:7b:e4:25:e0:c1:3c:17:40:60:30:98:18:a3:c1:41:29:f2:f9:a0:b9:f3:ea:5e:df:bb:67:16:23:86:01:22:79:b6:b9:35:50:e1:f9:4e:aa:78:02:1a:61:a2:16:60:14:60:5a:87:93:4a:b4:5b:ea:e5:80:f8:30:85:a9:4b:c3:ff:13:e9:0f:04:ad:30:ad:33:72:9c:ad:8b:07:80:d8:db:4c:4c:26:05:18:38:14:41:7f:87:e1:8b:a5:ae:5d:dd:a7:58:b7:84:0d:a8:d8:42:d1:f1:5f:cc:2c:9f:9a:bf:23:95:05:18:16:30:18:9b:04:8a:c0:7b:cf:be:ab:66:c0:f2:10:b6:78:86:8c:32:19:c8:41:4f:ab:9a:e5:b0:46:5c:18:70:3d:ab:87:cd:f0:50:83:01:08:bd:1d:6b:61:49:c3:2a:76:97:2b:83:54:8c:7e:f1:67:b6:a6:32:b6:12:ba:af:f8:b5:06:13:36:0b:ac:2a:bd:28:a6:c9:1f:49:d3:7d:01:03:7b:f1:e9:b0:e2:69:34:ba:c6:d7:72:c5:cb:96:f8:64:12:61:e0:88:48:46:9a:81:c0:fe:9a:fc:58:64:75:5e:63:6b:31:fe:8f:99:f0:8b:80:9e:27:05:08:e8:ae:a7:69:10:8b:0d:3d:76:ed:48:95:48:14:64:8c:5c:07:41:58:ae:a1:69:b1:a5:c3:64:f7:e1:41:63:b5:c8:8d:e2:92:72:69:52:28:fa:9f:22:7a:93:ce:86:3a:c6:4c:29:36:f2:ff:6c:f2:39:38:e3:2c:e9:d2:f6:ed:a2:b7:85:d0:3d:62:af:5d:79:31:23:c0:2d:6f:81:44:d8:85:19:e5:8e:86:1b:1a:a4:67:52:b6:5b:51:02:50:91:82:ac:3f:03:af:46:a6:66:2e:fb:c0:de:a9:a1" value="a2f0195894582c607e2b2c0ab15d0b17ae6d7d4a6160fd4e9ca062d158bc216883f2350b1805b763a58061a1c969933a9634c4c8377a65d0f90583732305ab430de651184c2f4be57a28850a45afe08e196cafd82d960a817801ea8b820b45e07020e07cce4030aef03dcd5b3f3512d6f29aa4684f23785212c1087c23fa082d15ce95c255ac287b7f7a71d543cd83b4199061f0f41483b6fcdddac76d6be82b9fc12412807c180e7fe3e6c743ffc12c75ee8298b60315f9806021ad88a580c8346fc5a938394187a0c10281c2d4a90721f7419133296e2e8e6a2a4b16e02de7bdcef089f59ef210b2b0780829c3a2f28093c83c0414a0c88bc6413789812187a0f87ffbb5262483814ed8c8327440ee0315fc17c985862aa0630505a706462d6f83086b01c6c353064149f0782ff94ba02df03006ce02033437c09cd032af83c17fbe901f1fffb15697f3e2502f8510296f6741568c81a7e8e595c1907c182882ce2b104443cab79418ad9e95081f060c9f84a2bd879baacda01eada420aba0c14d0faee0f920314340c193964bf0782ff17be425e0c13c174060309818a3c14129f2f9a0b9f3ea5edfbb67162386012279b6b93550e1f94eaa78021a61a2166014605a87934ab45beae580f83085a94bc3ff13e90f04ad30ad33729cad8b0780d8db4c4c2605183814417f87e18ba5ae5ddda758b7840da8d842d1f15fcc2c9f9abf239505181630189b048ac07bcfbeab66c0f210b678868c3219c8414fab9ae5b0465c18703dab87cdf050830108bd1d6b6149c32a76972b83548c7ef167b6a632b612baaff8b50613360bac2abd28a6c91f49d37d01037bf1e9b0e26934bac6d772c5cb96f8641261e08848469a81c0fe9afc5864755e636b31fe8f99f08b809e270508e8aea769108b0d3d76ed48954814648c5c074158aea169b1a5c364f7e14163b5c88de29272695228fa9f227a93ce863ac64c2936f2ff6cf23938e32ce9d2f6eda2b785d03d62af5d793123c02d6f8144d88519e58e861b1aa46752b65b5102509182ac3f03af46a6662efbc0dea9a1"/>
    <field name="rtp.padding.data" showname="Padding data: 41a9c2a2058dfe8c5e8fb38b93a59710d3b18746b4e15275..." size="214" pos="851" show="41:a9:c2:a2:05:8d:fe:8c:5e:8f:b3:8b:93:a5:97:10:d3:b1:87:46:b4:e1:52:75:ed:49:48:78:5b:27:94:bf:ed:51:82:73:5e:4c:59:cd:01:19:5b:42:08:08:02:ec:10:c1:95:08:c2:4a:4f:a6:1f:b5:3f:36:71:11:3a:42:6b:e3:f0:73:62:ce:31:41:f6:a0:d0:10:81:82:04:06:54:ca:ba:3e:2b:48:dd:35:25:84:96:40:a5:84:0d:62:1e:39:f0:85:e4:e2:22:82:57:0d:2a:1e:96:2d:a4:42:ca:c7:c3:9b:d8:46:d5:03:f0:61:bf:c5:31:25:f0:19:7f:8a:52:0b:19:8a:06:0c:22:b0:2e:65:b6:0c:08:7a:a0:10:bf:75:11:6c:0c:9f:c1:80:e0:30:2b:42:0f:72:01:61:6d:83:c0:7e:fe:9a:b6:0c:d3:6a:2f:38:df:86:71:73:e2:10:78:08:1c:40:f3:43:e2:e8:5f:2f:74:2f:6f:6a:85:57:43:7e:0d:45:fe:98:73:b6:86:c1:93:db:4d:4a:d3:b0:e4:0f" value="41a9c2a2058dfe8c5e8fb38b93a59710d3b18746b4e15275ed4948785b2794bfed5182735e4c59cd01195b42080802ec10c19508c24a4fa61fb53f3671113a426be3f07362ce3141f6a0d0108182040654caba3e2b48dd3525849640a5840d621e39f085e4e22282570d2a1e962da442cac7c39bd846d503f061bfc53125f0197f8a520b198a060c22b02e65b60c087aa010bf75116c0c9fc180e0302b420f7201616d83c07efe9ab60cd36a2f38df867173e21078081c40f343e2e85f2f742f6f6a8557437e0d45fe9873b686c193db4d4ad3b0e40f"/>
    <field name="rtp.padding.count" showname="Padding count: 215" size="1" pos="1065" show="215" value="d7"/>
  </proto>
</packet>



<packet>
  <proto name="geninfo" pos="0" showname="General information" size="1066">
    <field name="num" pos="0" show="1295" showname="Number" value="50f" size="1066"/>
    <field name="len" pos="0" show="1066" showname="Frame Length" value="42a" size="1066"/>
    <field name="caplen" pos="0" show="1066" showname="Captured Length" value="42a" size="1066"/>
    <field name="timestamp" pos="0" show="Jan  4, 2013 08:45:22.098523000 MSK" showname="Captured Time" value="1357274722.098523000" size="1066"/>
  </proto>
  <proto name="frame" showname="Frame 1295: 1066 bytes on wire (8528 bits), 1066 bytes captured (8528 bits)" size="1066" pos="0">
    <field name="frame.encap_type" showname="Encapsulation type: Ethernet (1)" size="0" pos="0" show="1"/>
    <field name="frame.time" showname="Arrival Time: Jan  4, 2013 08:45:22.098523000 MSK" size="0" pos="0" show="Jan  4, 2013 08:45:22.098523000 MSK"/>
    <field name="frame.offset_shift" showname="Time shift for this packet: 0.000000000 seconds" size="0" pos="0" show="0.000000000"/>
    <field name="frame.time_epoch" showname="Epoch Time: 1357274722.098523000 seconds" size="0" pos="0" show="1357274722.098523000"/>
    <field name="frame.time_delta" showname="Time delta from previous captured frame: 0.016052000 seconds" size="0" pos="0" show="0.016052000"/>
    <field name="frame.time_delta_displayed" showname="Time delta from previous displayed frame: 0.016052000 seconds" size="0" pos="0" show="0.016052000"/>
    <field name="frame.time_relative" showname="Time since reference or first frame: 26.597705000 seconds" size="0" pos="0" show="26.597705000"/>
    <field name="frame.number" showname="Frame Number: 1295" size="0" pos="0" show="1295"/>
    <field name="frame.len" showname="Frame Length: 1066 bytes (8528 bits)" size="0" pos="0" show="1066"/>
    <field name="frame.cap_len" showname="Capture Length: 1066 bytes (8528 bits)" size="0" pos="0" show="1066"/>
    <field name="frame.marked" showname="Frame is marked: False" size="0" pos="0" show="0"/>
    <field name="frame.ignored" showname="Frame is ignored: False" size="0" pos="0" show="0"/>
    <field name="frame.protocols" showname="Protocols in frame: eth:ethertype:ip:udp:rtp" size="0" pos="0" show="eth:ethertype:ip:udp:rtp"/>
    <field name="frame.coloring_rule.name" showname="Coloring Rule Name: UDP" size="0" pos="0" show="UDP"/>
    <field name="frame.coloring_rule.string" showname="Coloring Rule String: udp" size="0" pos="0" show="udp"/>
  </proto>
  <proto name="eth" showname="Ethernet II, Src: Wiznet_15:ce:e3 (00:08:dc:15:ce:e3), Dst: Dell_e7:b6:7e (bc:30:5b:e7:b6:7e)" size="14" pos="0">
    <field name="eth.dst" showname="Destination: Dell_e7:b6:7e (bc:30:5b:e7:b6:7e)" size="6" pos="0" show="bc:30:5b:e7:b6:7e" value="bc305be7b67e">
      <field name="eth.dst_resolved" showname="Destination (resolved): Dell_e7:b6:7e" hide="yes" size="6" pos="0" show="Dell_e7:b6:7e" value="bc305be7b67e"/>
      <field name="eth.addr" showname="Address: Dell_e7:b6:7e (bc:30:5b:e7:b6:7e)" size="6" pos="0" show="bc:30:5b:e7:b6:7e" value="bc305be7b67e"/>
      <field name="eth.addr_resolved" showname="Address (resolved): Dell_e7:b6:7e" hide="yes" size="6" pos="0" show="Dell_e7:b6:7e" value="bc305be7b67e"/>
      <field name="eth.lg" showname=".... ..0. .... .... .... .... = LG bit: Globally unique address (factory default)" size="3" pos="0" show="0" value="0" unmaskedvalue="bc305b"/>
      <field name="eth.ig" showname=".... ...0 .... .... .... .... = IG bit: Individual address (unicast)" size="3" pos="0" show="0" value="0" unmaskedvalue="bc305b"/>
    </field>
    <field name="eth.src" showname="Source: Wiznet_15:ce:e3 (00:08:dc:15:ce:e3)" size="6" pos="6" show="00:08:dc:15:ce:e3" value="0008dc15cee3">
      <field name="eth.src_resolved" showname="Source (resolved): Wiznet_15:ce:e3" hide="yes" size="6" pos="6" show="Wiznet_15:ce:e3" value="0008dc15cee3"/>
      <field name="eth.addr" showname="Address: Wiznet_15:ce:e3 (00:08:dc:15:ce:e3)" size="6" pos="6" show="00:08:dc:15:ce:e3" value="0008dc15cee3"/>
      <field name="eth.addr_resolved" showname="Address (resolved): Wiznet_15:ce:e3" hide="yes" size="6" pos="6" show="Wiznet_15:ce:e3" value="0008dc15cee3"/>
      <field name="eth.lg" showname=".... ..0. .... .... .... .... = LG bit: Globally unique address (factory default)" size="3" pos="6" show="0" value="0" unmaskedvalue="0008dc"/>
      <field name="eth.ig" showname=".... ...0 .... .... .... .... = IG bit: Individual address (unicast)" size="3" pos="6" show="0" value="0" unmaskedvalue="0008dc"/>
    </field>
    <field name="eth.type" showname="Type: IP (0x0800)" size="2" pos="12" show="2048" value="0800"/>
  </proto>
  <proto name="ip" showname="Internet Protocol Version 4, Src: 192.168.1.200 (192.168.1.200), Dst: 192.168.1.202 (192.168.1.202)" size="20" pos="14">
    <field name="ip.version" showname="Version: 4" size="1" pos="14" show="4" value="45"/>
    <field name="ip.hdr_len" showname="Header Length: 20 bytes" size="1" pos="14" show="20" value="45"/>
    <field name="ip.dsfield" showname="Differentiated Services Field: 0x00 (DSCP 0x00: Default; ECN: 0x00: Not-ECT (Not ECN-Capable Transport))" size="1" pos="15" show="0" value="00">
      <field name="ip.dsfield.dscp" showname="0000 00.. = Differentiated Services Codepoint: Default (0x00)" size="1" pos="15" show="0" value="0" unmaskedvalue="00"/>
      <field name="ip.dsfield.ecn" showname=".... ..00 = Explicit Congestion Notification: Not-ECT (Not ECN-Capable Transport) (0x00)" size="1" pos="15" show="0" value="0" unmaskedvalue="00"/>
    </field>
    <field name="ip.len" showname="Total Length: 1052" size="2" pos="16" show="1052" value="041c"/>
    <field name="ip.id" showname="Identification: 0x04ac (1196)" size="2" pos="18" show="1196" value="04ac"/>
    <field name="ip.flags" showname="Flags: 0x02 (Don&apos;t Fragment)" size="1" pos="20" show="2" value="40">
      <field name="ip.flags.rb" showname="0... .... = Reserved bit: Not set" size="1" pos="20" show="0" value="40"/>
      <field name="ip.flags.df" showname=".1.. .... = Don&apos;t fragment: Set" size="1" pos="20" show="1" value="40"/>
      <field name="ip.flags.mf" showname="..0. .... = More fragments: Not set" size="1" pos="20" show="0" value="40"/>
    </field>
    <field name="ip.frag_offset" showname="Fragment offset: 0" size="2" pos="20" show="0" value="4000"/>
    <field name="ip.ttl" showname="Time to live: 128" size="1" pos="22" show="128" value="80"/>
    <field name="ip.proto" showname="Protocol: UDP (17)" size="1" pos="23" show="17" value="11"/>
    <field name="ip.checksum" showname="Header checksum: 0x6d42 [validation disabled]" size="2" pos="24" show="27970" value="6d42">
      <field name="ip.checksum_good" showname="Good: False" size="2" pos="24" show="0" value="6d42"/>
      <field name="ip.checksum_bad" showname="Bad: False" size="2" pos="24" show="0" value="6d42"/>
    </field>
    <field name="ip.src" showname="Source: 192.168.1.200 (192.168.1.200)" size="4" pos="26" show="192.168.1.200" value="c0a801c8"/>
    <field name="ip.addr" showname="Source or Destination Address: 192.168.1.200 (192.168.1.200)" hide="yes" size="4" pos="26" show="192.168.1.200" value="c0a801c8"/>
    <field name="ip.src_host" showname="Source Host: 192.168.1.200" hide="yes" size="4" pos="26" show="192.168.1.200" value="c0a801c8"/>
    <field name="ip.host" showname="Source or Destination Host: 192.168.1.200" hide="yes" size="4" pos="26" show="192.168.1.200" value="c0a801c8"/>
    <field name="ip.dst" showname="Destination: 192.168.1.202 (192.168.1.202)" size="4" pos="30" show="192.168.1.202" value="c0a801ca"/>
    <field name="ip.addr" showname="Source or Destination Address: 192.168.1.202 (192.168.1.202)" hide="yes" size="4" pos="30" show="192.168.1.202" value="c0a801ca"/>
    <field name="ip.dst_host" showname="Destination Host: 192.168.1.202" hide="yes" size="4" pos="30" show="192.168.1.202" value="c0a801ca"/>
    <field name="ip.host" showname="Source or Destination Host: 192.168.1.202" hide="yes" size="4" pos="30" show="192.168.1.202" value="c0a801ca"/>
    <field name="" show="Source GeoIP: Unknown" size="4" pos="26" value="c0a801c8"/>
    <field name="" show="Destination GeoIP: Unknown" size="4" pos="30" value="c0a801ca"/>
  </proto>
  <proto name="udp" showname="User Datagram Protocol, Src Port: 8 (8), Dst Port: 8080 (8080)" size="8" pos="34">
    <field name="udp.srcport" showname="Source Port: 8 (8)" size="2" pos="34" show="8" value="0008"/>
    <field name="udp.dstport" showname="Destination Port: 8080 (8080)" size="2" pos="36" show="8080" value="1f90"/>
    <field name="udp.port" showname="Source or Destination Port: 8" hide="yes" size="2" pos="34" show="8" value="0008"/>
    <field name="udp.port" showname="Source or Destination Port: 8080" hide="yes" size="2" pos="36" show="8080" value="1f90"/>
    <field name="udp.length" showname="Length: 1032" size="2" pos="38" show="1032" value="0408"/>
    <field name="udp.checksum_coverage" showname="Checksum coverage: 1032" hide="yes" size="0" pos="38" show="1032"/>
    <field name="udp.checksum" showname="Checksum: 0x07f5 [validation disabled]" size="2" pos="40" show="2037" value="07f5">
      <field name="udp.checksum_good" showname="Good Checksum: False" size="2" pos="40" show="0" value="07f5"/>
      <field name="udp.checksum_bad" showname="Bad Checksum: False" size="2" pos="40" show="0" value="07f5"/>
    </field>
    <field name="udp.stream" showname="Stream index: 6" size="0" pos="42" show="6"/>
  </proto>
  <proto name="rtp" showname="Real-Time Transport Protocol" size="1024" pos="42">
    <field name="rtp.version" showname="10.. .... = Version: RFC 1889 Version (2)" size="1" pos="42" show="2" value="2" unmaskedvalue="aa"/>
    <field name="rtp.padding" showname="..1. .... = Padding: True" size="1" pos="42" show="1" value="1" unmaskedvalue="aa"/>
    <field name="rtp.ext" showname="...0 .... = Extension: False" size="1" pos="42" show="0" value="0" unmaskedvalue="aa"/>
    <field name="rtp.cc" showname=".... 1010 = Contributing source identifiers count: 10" size="1" pos="42" show="10" value="A" unmaskedvalue="aa"/>
    <field name="rtp.marker" showname="1... .... = Marker: True" size="1" pos="43" show="1" value="1" unmaskedvalue="84"/>
    <field name="rtp.p_type" showname="Payload type: ITU-T G.723 (4)" size="1" pos="43" show="4" value="4" unmaskedvalue="84"/>
    <field name="rtp.seq" showname="Sequence number: 784" size="2" pos="46" show="784" value="0310"/>
    <field name="rtp.timestamp" showname="Timestamp: 188160" size="4" pos="48" show="188160" value="0002df00"/>
    <field name="rtp.ssrc" showname="Synchronization Source identifier: 0x43f6af95 (1140240277)" size="4" pos="50" show="1140240277" value="43f6af95"/>
    <field name="rtp.csrc.items" showname="Contributing Source identifiers (10 items)" size="40" pos="54" show="" value="">
      <field name="rtp.csrc.item" showname="CSRC item 0: 0xDE93B269" size="4" pos="54" show="3734221417" value="de93b269"/>
      <field name="rtp.csrc.item" showname="CSRC item 1: 0xC9B0D3E2" size="4" pos="58" show="3383808994" value="c9b0d3e2"/>
      <field name="rtp.csrc.item" showname="CSRC item 2: 0xB471ED90" size="4" pos="62" show="3027365264" value="b471ed90"/>
      <field name="rtp.csrc.item" showname="CSRC item 3: 0x1F043D6B" size="4" pos="66" show="520371563" value="1f043d6b"/>
      <field name="rtp.csrc.item" showname="CSRC item 4: 0x99ABC158" size="4" pos="70" show="2578170200" value="99abc158"/>
      <field name="rtp.csrc.item" showname="CSRC item 5: 0x887C25A6" size="4" pos="74" show="2289837478" value="887c25a6"/>
      <field name="rtp.csrc.item" showname="CSRC item 6: 0xF814307E" size="4" pos="78" show="4162072702" value="f814307e"/>
      <field name="rtp.csrc.item" showname="CSRC item 7: 0xB8300F99" size="4" pos="82" show="3090157465" value="b8300f99"/>
      <field name="rtp.csrc.item" showname="CSRC item 8: 0x5042F4C0" size="4" pos="86" show="1346565312" value="5042f4c0"/>
      <field name="rtp.csrc.item" showname="CSRC item 9: 0xAC32D8A9" size="4" pos="90" show="2889013417" value="ac32d8a9"/>
    </field>
    <field name="rtp.payload" showname="Payload: a2f0195894582c607e2b2c0ab15d0b17ae6d7d4a6160fd4e..." size="757" pos="94" show="a2:f0:19:58:94:58:2c:60:7e:2b:2c:0a:b1:5d:0b:17:ae:6d:7d:4a:61:60:fd:4e:9c:a0:62:d1:58:bc:21:68:83:f2:35:0b:18:05:b7:63:a5:80:61:a1:c9:69:93:3a:96:34:c4:c8:37:7a:65:d0:f9:05:83:73:23:05:ab:43:0d:e6:51:18:4c:2f:4b:e5:7a:28:85:0a:45:af:e0:8e:19:6c:af:d8:2d:96:0a:81:78:01:ea:8b:82:0b:45:e0:70:20:e0:7c:ce:40:30:ae:f0:3d:cd:5b:3f:35:12:d6:f2:9a:a4:68:4f:23:78:52:12:c1:08:7c:23:fa:08:2d:15:ce:95:c2:55:ac:28:7b:7f:7a:71:d5:43:cd:83:b4:19:90:61:f0:f4:14:83:b6:fc:dd:da:c7:6d:6b:e8:2b:9f:c1:24:12:80:7c:18:0e:7f:e3:e6:c7:43:ff:c1:2c:75:ee:82:98:b6:03:15:f9:80:60:21:ad:88:a5:80:c8:34:6f:c5:a9:38:39:41:87:a0:c1:02:81:c2:d4:a9:07:21:f7:41:91:33:29:6e:2e:8e:6a:2a:4b:16:e0:2d:e7:bd:ce:f0:89:f5:9e:f2:10:b2:b0:78:08:29:c3:a2:f2:80:93:c8:3c:04:14:a0:c8:8b:c6:41:37:89:81:21:87:a0:f8:7f:fb:b5:26:24:83:81:4e:d8:c8:32:74:40:ee:03:15:fc:17:c9:85:86:2a:a0:63:05:05:a7:06:46:2d:6f:83:08:6b:01:c6:c3:53:06:41:49:f0:78:2f:f9:4b:a0:2d:f0:30:06:ce:02:03:34:37:c0:9c:d0:32:af:83:c1:7f:be:90:1f:1f:ff:b1:56:97:f3:e2:50:2f:85:10:29:6f:67:41:56:8c:81:a7:e8:e5:95:c1:90:7c:18:28:82:ce:2b:10:44:43:ca:b7:94:18:ad:9e:95:08:1f:06:0c:9f:84:a2:bd:87:9b:aa:cd:a0:1e:ad:a4:20:ab:a0:c1:4d:0f:ae:e0:f9:20:31:43:40:c1:93:96:4b:f0:78:2f:f1:7b:e4:25:e0:c1:3c:17:40:60:30:98:18:a3:c1:41:29:f2:f9:a0:b9:f3:ea:5e:df:bb:67:16:23:86:01:22:79:b6:b9:35:50:e1:f9:4e:aa:78:02:1a:61:a2:16:60:14:60:5a:87:93:4a:b4:5b:ea:e5:80:f8:30:85:a9:4b:c3:ff:13:e9:0f:04:ad:30:ad:33:72:9c:ad:8b:07:80:d8:db:4c:4c:26:05:18:38:14:41:7f:87:e1:8b:a5:ae:5d:dd:a7:58:b7:84:0d:a8:d8:42:d1:f1:5f:cc:2c:9f:9a:bf:23:95:05:18:16:30:18:9b:04:8a:c0:7b:cf:be:ab:66:c0:f2:10:b6:78:86:8c:32:19:c8:41:4f:ab:9a:e5:b0:46:5c:18:70:3d:ab:87:cd:f0:50:83:01:08:bd:1d:6b:61:49:c3:2a:76:97:2b:83:54:8c:7e:f1:67:b6:a6:32:b6:12:ba:af:f8:b5:06:13:36:0b:ac:2a:bd:28:a6:c9:1f:49:d3:7d:01:03:7b:f1:e9:b0:e2:69:34:ba:c6:d7:72:c5:cb:96:f8:64:12:61:e0:88:48:46:9a:81:c0:fe:9a:fc:58:64:75:5e:63:6b:31:fe:8f:99:f0:8b:80:9e:27:05:08:e8:ae:a7:69:10:8b:0d:3d:76:ed:48:95:48:14:64:8c:5c:07:41:58:ae:a1:69:b1:a5:c3:64:f7:e1:41:63:b5:c8:8d:e2:92:72:69:52:28:fa:9f:22:7a:93:ce:86:3a:c6:4c:29:36:f2:ff:6c:f2:39:38:e3:2c:e9:d2:f6:ed:a2:b7:85:d0:3d:62:af:5d:79:31:23:c0:2d:6f:81:44:d8:85:19:e5:8e:86:1b:1a:a4:67:52:b6:5b:51:02:50:91:82:ac:3f:03:af:46:a6:66:2e:fb:c0:de:a9:a1" value="a2f0195894582c607e2b2c0ab15d0b17ae6d7d4a6160fd4e9ca062d158bc216883f2350b1805b763a58061a1c969933a9634c4c8377a65d0f90583732305ab430de651184c2f4be57a28850a45afe08e196cafd82d960a817801ea8b820b45e07020e07cce4030aef03dcd5b3f3512d6f29aa4684f23785212c1087c23fa082d15ce95c255ac287b7f7a71d543cd83b4199061f0f41483b6fcdddac76d6be82b9fc12412807c180e7fe3e6c743ffc12c75ee8298b60315f9806021ad88a580c8346fc5a938394187a0c10281c2d4a90721f7419133296e2e8e6a2a4b16e02de7bdcef089f59ef210b2b0780829c3a2f28093c83c0414a0c88bc6413789812187a0f87ffbb5262483814ed8c8327440ee0315fc17c985862aa0630505a706462d6f83086b01c6c353064149f0782ff94ba02df03006ce02033437c09cd032af83c17fbe901f1fffb15697f3e2502f8510296f6741568c81a7e8e595c1907c182882ce2b104443cab79418ad9e95081f060c9f84a2bd879baacda01eada420aba0c14d0faee0f920314340c193964bf0782ff17be425e0c13c174060309818a3c14129f2f9a0b9f3ea5edfbb67162386012279b6b93550e1f94eaa78021a61a2166014605a87934ab45beae580f83085a94bc3ff13e90f04ad30ad33729cad8b0780d8db4c4c2605183814417f87e18ba5ae5ddda758b7840da8d842d1f15fcc2c9f9abf239505181630189b048ac07bcfbeab66c0f210b678868c3219c8414fab9ae5b0465c18703dab87cdf050830108bd1d6b6149c32a76972b83548c7ef167b6a632b612baaff8b50613360bac2abd28a6c91f49d37d01037bf1e9b0e26934bac6d772c5cb96f8641261e08848469a81c0fe9afc5864755e636b31fe8f99f08b809e270508e8aea769108b0d3d76ed48954814648c5c074158aea169b1a5c364f7e14163b5c88de29272695228fa9f227a93ce863ac64c2936f2ff6cf23938e32ce9d2f6eda2b785d03d62af5d793123c02d6f8144d88519e58e861b1aa46752b65b5102509182ac3f03af46a6662efbc0dea9a1"/>
    <field name="rtp.padding.data" showname="Padding data: 41a9c2a2058dfe8c5e8fb38b93a59710d3b18746b4e15275..." size="214" pos="851" show="41:a9:c2:a2:05:8d:fe:8c:5e:8f:b3:8b:93:a5:97:10:d3:b1:87:46:b4:e1:52:75:ed:49:48:78:5b:27:94:bf:ed:51:82:73:5e:4c:59:cd:01:19:5b:42:08:08:02:ec:10:c1:95:08:c2:4a:4f:a6:1f:b5:3f:36:71:11:3a:42:6b:e3:f0:73:62:ce:31:41:f6:a0:d0:10:81:82:04:06:54:ca:ba:3e:2b:48:dd:35:25:84:96:40:a5:84:0d:62:1e:39:f0:85:e4:e2:22:82:57:0d:2a:1e:96:2d:a4:42:ca:c7:c3:9b:d8:46:d5:03:f0:61:bf:c5:31:25:f0:19:7f:8a:52:0b:19:8a:06:0c:22:b0:2e:65:b6:0c:08:7a:a0:10:bf:75:11:6c:0c:9f:c1:80:e0:30:2b:42:0f:72:01:61:6d:83:c0:7e:fe:9a:b6:0c:d3:6a:2f:38:df:86:71:73:e2:10:78:08:1c:40:f3:43:e2:e8:5f:2f:74:2f:6f:6a:85:57:43:7e:0d:45:fe:98:73:b6:86:c1:93:db:4d:4a:d3:b0:e4:0f" value="41a9c2a2058dfe8c5e8fb38b93a59710d3b18746b4e15275ed4948785b2794bfed5182735e4c59cd01195b42080802ec10c19508c24a4fa61fb53f3671113a426be3f07362ce3141f6a0d0108182040654caba3e2b48dd3525849640a5840d621e39f085e4e22282570d2a1e962da442cac7c39bd846d503f061bfc53125f0197f8a520b198a060c22b02e65b60c087aa010bf75116c0c9fc180e0302b420f7201616d83c07efe9ab60cd36a2f38df867173e21078081c40f343e2e85f2f742f6f6a8557437e0d45fe9873b686c193db4d4ad3b0e40f"/>
    <field name="rtp.padding.count" showname="Padding count: 215" size="1" pos="1065" show="215" value="d7"/>
  </proto>
</packet>




<packet>
  <proto name="geninfo" pos="0" showname="General information" size="1066">
    <field name="num" pos="0" show="1295" showname="Number" value="50f" size="1066"/>
    <field name="len" pos="0" show="1066" showname="Frame Length" value="42a" size="1066"/>
    <field name="caplen" pos="0" show="1066" showname="Captured Length" value="42a" size="1066"/>
    <field name="timestamp" pos="0" show="Jan  4, 2013 08:45:22.098523000 MSK" showname="Captured Time" value="1357274722.098523000" size="1066"/>
  </proto>
  <proto name="frame" showname="Frame 1295: 1066 bytes on wire (8528 bits), 1066 bytes captured (8528 bits)" size="1066" pos="0">
    <field name="frame.encap_type" showname="Encapsulation type: Ethernet (1)" size="0" pos="0" show="1"/>
    <field name="frame.time" showname="Arrival Time: Jan  4, 2013 08:45:22.098523000 MSK" size="0" pos="0" show="Jan  4, 2013 08:45:22.098523000 MSK"/>
    <field name="frame.offset_shift" showname="Time shift for this packet: 0.000000000 seconds" size="0" pos="0" show="0.000000000"/>
    <field name="frame.time_epoch" showname="Epoch Time: 1357274722.098523000 seconds" size="0" pos="0" show="1357274722.098523000"/>
    <field name="frame.time_delta" showname="Time delta from previous captured frame: 0.016052000 seconds" size="0" pos="0" show="0.016052000"/>
    <field name="frame.time_delta_displayed" showname="Time delta from previous displayed frame: 0.016052000 seconds" size="0" pos="0" show="0.016052000"/>
    <field name="frame.time_relative" showname="Time since reference or first frame: 26.597705000 seconds" size="0" pos="0" show="26.597705000"/>
    <field name="frame.number" showname="Frame Number: 1295" size="0" pos="0" show="1295"/>
    <field name="frame.len" showname="Frame Length: 1066 bytes (8528 bits)" size="0" pos="0" show="1066"/>
    <field name="frame.cap_len" showname="Capture Length: 1066 bytes (8528 bits)" size="0" pos="0" show="1066"/>
    <field name="frame.marked" showname="Frame is marked: False" size="0" pos="0" show="0"/>
    <field name="frame.ignored" showname="Frame is ignored: False" size="0" pos="0" show="0"/>
    <field name="frame.protocols" showname="Protocols in frame: eth:ethertype:ip:udp:rtp" size="0" pos="0" show="eth:ethertype:ip:udp:rtp"/>
    <field name="frame.coloring_rule.name" showname="Coloring Rule Name: UDP" size="0" pos="0" show="UDP"/>
    <field name="frame.coloring_rule.string" showname="Coloring Rule String: udp" size="0" pos="0" show="udp"/>
  </proto>
  <proto name="eth" showname="Ethernet II, Src: Wiznet_15:ce:e3 (00:08:dc:15:ce:e3), Dst: Dell_e7:b6:7e (bc:30:5b:e7:b6:7e)" size="14" pos="0">
    <field name="eth.dst" showname="Destination: Dell_e7:b6:7e (bc:30:5b:e7:b6:7e)" size="6" pos="0" show="bc:30:5b:e7:b6:7e" value="bc305be7b67e">
      <field name="eth.dst_resolved" showname="Destination (resolved): Dell_e7:b6:7e" hide="yes" size="6" pos="0" show="Dell_e7:b6:7e" value="bc305be7b67e"/>
      <field name="eth.addr" showname="Address: Dell_e7:b6:7e (bc:30:5b:e7:b6:7e)" size="6" pos="0" show="bc:30:5b:e7:b6:7e" value="bc305be7b67e"/>
      <field name="eth.addr_resolved" showname="Address (resolved): Dell_e7:b6:7e" hide="yes" size="6" pos="0" show="Dell_e7:b6:7e" value="bc305be7b67e"/>
      <field name="eth.lg" showname=".... ..0. .... .... .... .... = LG bit: Globally unique address (factory default)" size="3" pos="0" show="0" value="0" unmaskedvalue="bc305b"/>
      <field name="eth.ig" showname=".... ...0 .... .... .... .... = IG bit: Individual address (unicast)" size="3" pos="0" show="0" value="0" unmaskedvalue="bc305b"/>
    </field>
    <field name="eth.src" showname="Source: Wiznet_15:ce:e3 (00:08:dc:15:ce:e3)" size="6" pos="6" show="00:08:dc:15:ce:e3" value="0008dc15cee3">
      <field name="eth.src_resolved" showname="Source (resolved): Wiznet_15:ce:e3" hide="yes" size="6" pos="6" show="Wiznet_15:ce:e3" value="0008dc15cee3"/>
      <field name="eth.addr" showname="Address: Wiznet_15:ce:e3 (00:08:dc:15:ce:e3)" size="6" pos="6" show="00:08:dc:15:ce:e3" value="0008dc15cee3"/>
      <field name="eth.addr_resolved" showname="Address (resolved): Wiznet_15:ce:e3" hide="yes" size="6" pos="6" show="Wiznet_15:ce:e3" value="0008dc15cee3"/>
      <field name="eth.lg" showname=".... ..0. .... .... .... .... = LG bit: Globally unique address (factory default)" size="3" pos="6" show="0" value="0" unmaskedvalue="0008dc"/>
      <field name="eth.ig" showname=".... ...0 .... .... .... .... = IG bit: Individual address (unicast)" size="3" pos="6" show="0" value="0" unmaskedvalue="0008dc"/>
    </field>
    <field name="eth.type" showname="Type: IP (0x0800)" size="2" pos="12" show="2048" value="0800"/>
  </proto>
  <proto name="ip" showname="Internet Protocol Version 4, Src: 192.168.1.200 (192.168.1.200), Dst: 192.168.1.202 (192.168.1.202)" size="20" pos="14">
    <field name="ip.version" showname="Version: 4" size="1" pos="14" show="4" value="45"/>
    <field name="ip.hdr_len" showname="Header Length: 20 bytes" size="1" pos="14" show="20" value="45"/>
    <field name="ip.dsfield" showname="Differentiated Services Field: 0x00 (DSCP 0x00: Default; ECN: 0x00: Not-ECT (Not ECN-Capable Transport))" size="1" pos="15" show="0" value="00">
      <field name="ip.dsfield.dscp" showname="0000 00.. = Differentiated Services Codepoint: Default (0x00)" size="1" pos="15" show="0" value="0" unmaskedvalue="00"/>
      <field name="ip.dsfield.ecn" showname=".... ..00 = Explicit Congestion Notification: Not-ECT (Not ECN-Capable Transport) (0x00)" size="1" pos="15" show="0" value="0" unmaskedvalue="00"/>
    </field>
    <field name="ip.len" showname="Total Length: 1052" size="2" pos="16" show="1052" value="041c"/>
    <field name="ip.id" showname="Identification: 0x04ac (1196)" size="2" pos="18" show="1196" value="04ac"/>
    <field name="ip.flags" showname="Flags: 0x02 (Don&apos;t Fragment)" size="1" pos="20" show="2" value="40">
      <field name="ip.flags.rb" showname="0... .... = Reserved bit: Not set" size="1" pos="20" show="0" value="40"/>
      <field name="ip.flags.df" showname=".1.. .... = Don&apos;t fragment: Set" size="1" pos="20" show="1" value="40"/>
      <field name="ip.flags.mf" showname="..0. .... = More fragments: Not set" size="1" pos="20" show="0" value="40"/>
    </field>
    <field name="ip.frag_offset" showname="Fragment offset: 0" size="2" pos="20" show="0" value="4000"/>
    <field name="ip.ttl" showname="Time to live: 128" size="1" pos="22" show="128" value="80"/>
    <field name="ip.proto" showname="Protocol: UDP (17)" size="1" pos="23" show="17" value="11"/>
    <field name="ip.checksum" showname="Header checksum: 0x6d42 [validation disabled]" size="2" pos="24" show="27970" value="6d42">
      <field name="ip.checksum_good" showname="Good: False" size="2" pos="24" show="0" value="6d42"/>
      <field name="ip.checksum_bad" showname="Bad: False" size="2" pos="24" show="0" value="6d42"/>
    </field>
    <field name="ip.src" showname="Source: 192.168.1.200 (192.168.1.200)" size="4" pos="26" show="192.168.1.200" value="c0a801c8"/>
    <field name="ip.addr" showname="Source or Destination Address: 192.168.1.200 (192.168.1.200)" hide="yes" size="4" pos="26" show="192.168.1.200" value="c0a801c8"/>
    <field name="ip.src_host" showname="Source Host: 192.168.1.200" hide="yes" size="4" pos="26" show="192.168.1.200" value="c0a801c8"/>
    <field name="ip.host" showname="Source or Destination Host: 192.168.1.200" hide="yes" size="4" pos="26" show="192.168.1.200" value="c0a801c8"/>
    <field name="ip.dst" showname="Destination: 192.168.1.202 (192.168.1.202)" size="4" pos="30" show="192.168.1.202" value="c0a801ca"/>
    <field name="ip.addr" showname="Source or Destination Address: 192.168.1.202 (192.168.1.202)" hide="yes" size="4" pos="30" show="192.168.1.202" value="c0a801ca"/>
    <field name="ip.dst_host" showname="Destination Host: 192.168.1.202" hide="yes" size="4" pos="30" show="192.168.1.202" value="c0a801ca"/>
    <field name="ip.host" showname="Source or Destination Host: 192.168.1.202" hide="yes" size="4" pos="30" show="192.168.1.202" value="c0a801ca"/>
    <field name="" show="Source GeoIP: Unknown" size="4" pos="26" value="c0a801c8"/>
    <field name="" show="Destination GeoIP: Unknown" size="4" pos="30" value="c0a801ca"/>
  </proto>
  <proto name="udp" showname="User Datagram Protocol, Src Port: 8 (8), Dst Port: 8080 (8080)" size="8" pos="34">
    <field name="udp.srcport" showname="Source Port: 8 (8)" size="2" pos="34" show="8" value="0008"/>
    <field name="udp.dstport" showname="Destination Port: 8080 (8080)" size="2" pos="36" show="8080" value="1f90"/>
    <field name="udp.port" showname="Source or Destination Port: 8" hide="yes" size="2" pos="34" show="8" value="0008"/>
    <field name="udp.port" showname="Source or Destination Port: 8080" hide="yes" size="2" pos="36" show="8080" value="1f90"/>
    <field name="udp.length" showname="Length: 1032" size="2" pos="38" show="1032" value="0408"/>
    <field name="udp.checksum_coverage" showname="Checksum coverage: 1032" hide="yes" size="0" pos="38" show="1032"/>
    <field name="udp.checksum" showname="Checksum: 0x07f5 [validation disabled]" size="2" pos="40" show="2037" value="07f5">
      <field name="udp.checksum_good" showname="Good Checksum: False" size="2" pos="40" show="0" value="07f5"/>
      <field name="udp.checksum_bad" showname="Bad Checksum: False" size="2" pos="40" show="0" value="07f5"/>
    </field>
    <field name="udp.stream" showname="Stream index: 6" size="0" pos="42" show="6"/>
  </proto>
  <proto name="rtp" showname="Real-Time Transport Protocol" size="1024" pos="42">
    <field name="rtp.version" showname="10.. .... = Version: RFC 1889 Version (2)" size="1" pos="42" show="2" value="2" unmaskedvalue="aa"/>
    <field name="rtp.padding" showname="..1. .... = Padding: True" size="1" pos="42" show="1" value="1" unmaskedvalue="aa"/>
    <field name="rtp.ext" showname="...0 .... = Extension: False" size="1" pos="42" show="0" value="0" unmaskedvalue="aa"/>
    <field name="rtp.cc" showname=".... 1010 = Contributing source identifiers count: 10" size="1" pos="42" show="10" value="A" unmaskedvalue="aa"/>
    <field name="rtp.marker" showname="1... .... = Marker: True" size="1" pos="43" show="1" value="1" unmaskedvalue="84"/>
    <field name="rtp.p_type" showname="Payload type: ITU-T G.723 (4)" size="1" pos="43" show="4" value="4" unmaskedvalue="84"/>
    <field name="rtp.seq" showname="Sequence number: 785" size="2" pos="46" show="785" value="0311"/>
    <field name="rtp.timestamp" showname="Timestamp: 188400" size="4" pos="48" show="188400" value="0002dff0"/>
    <field name="rtp.ssrc" showname="Synchronization Source identifier: 0x43f6af95 (1140240277)" size="4" pos="50" show="1140240277" value="43f6af95"/>
    <field name="rtp.csrc.items" showname="Contributing Source identifiers (10 items)" size="40" pos="54" show="" value="">
      <field name="rtp.csrc.item" showname="CSRC item 0: 0xDE93B269" size="4" pos="54" show="3734221417" value="de93b269"/>
      <field name="rtp.csrc.item" showname="CSRC item 1: 0xC9B0D3E2" size="4" pos="58" show="3383808994" value="c9b0d3e2"/>
      <field name="rtp.csrc.item" showname="CSRC item 2: 0xB471ED90" size="4" pos="62" show="3027365264" value="b471ed90"/>
      <field name="rtp.csrc.item" showname="CSRC item 3: 0x1F043D6B" size="4" pos="66" show="520371563" value="1f043d6b"/>
      <field name="rtp.csrc.item" showname="CSRC item 4: 0x99ABC158" size="4" pos="70" show="2578170200" value="99abc158"/>
      <field name="rtp.csrc.item" showname="CSRC item 5: 0x887C25A6" size="4" pos="74" show="2289837478" value="887c25a6"/>
      <field name="rtp.csrc.item" showname="CSRC item 6: 0xF814307E" size="4" pos="78" show="4162072702" value="f814307e"/>
      <field name="rtp.csrc.item" showname="CSRC item 7: 0xB8300F99" size="4" pos="82" show="3090157465" value="b8300f99"/>
      <field name="rtp.csrc.item" showname="CSRC item 8: 0x5042F4C0" size="4" pos="86" show="1346565312" value="5042f4c0"/>
      <field name="rtp.csrc.item" showname="CSRC item 9: 0xAC32D8A9" size="4" pos="90" show="2889013417" value="ac32d8a9"/>
    </field>
    <field name="rtp.payload" showname="Payload: a2f0195894582c607e2b2c0ab15d0b17ae6d7d4a6160fd4e..." size="757" pos="94" show="a2:f0:19:58:94:58:2c:60:7e:2b:2c:0a:b1:5d:0b:17:ae:6d:7d:4a:61:60:fd:4e:9c:a0:62:d1:58:bc:21:68:83:f2:35:0b:18:05:b7:63:a5:80:61:a1:c9:69:93:3a:96:34:c4:c8:37:7a:65:d0:f9:05:83:73:23:05:ab:43:0d:e6:51:18:4c:2f:4b:e5:7a:28:85:0a:45:af:e0:8e:19:6c:af:d8:2d:96:0a:81:78:01:ea:8b:82:0b:45:e0:70:20:e0:7c:ce:40:30:ae:f0:3d:cd:5b:3f:35:12:d6:f2:9a:a4:68:4f:23:78:52:12:c1:08:7c:23:fa:08:2d:15:ce:95:c2:55:ac:28:7b:7f:7a:71:d5:43:cd:83:b4:19:90:61:f0:f4:14:83:b6:fc:dd:da:c7:6d:6b:e8:2b:9f:c1:24:12:80:7c:18:0e:7f:e3:e6:c7:43:ff:c1:2c:75:ee:82:98:b6:03:15:f9:80:60:21:ad:88:a5:80:c8:34:6f:c5:a9:38:39:41:87:a0:c1:02:81:c2:d4:a9:07:21:f7:41:91:33:29:6e:2e:8e:6a:2a:4b:16:e0:2d:e7:bd:ce:f0:89:f5:9e:f2:10:b2:b0:78:08:29:c3:a2:f2:80:93:c8:3c:04:14:a0:c8:8b:c6:41:37:89:81:21:87:a0:f8:7f:fb:b5:26:24:83:81:4e:d8:c8:32:74:40:ee:03:15:fc:17:c9:85:86:2a:a0:63:05:05:a7:06:46:2d:6f:83:08:6b:01:c6:c3:53:06:41:49:f0:78:2f:f9:4b:a0:2d:f0:30:06:ce:02:03:34:37:c0:9c:d0:32:af:83:c1:7f:be:90:1f:1f:ff:b1:56:97:f3:e2:50:2f:85:10:29:6f:67:41:56:8c:81:a7:e8:e5:95:c1:90:7c:18:28:82:ce:2b:10:44:43:ca:b7:94:18:ad:9e:95:08:1f:06:0c:9f:84:a2:bd:87:9b:aa:cd:a0:1e:ad:a4:20:ab:a0:c1:4d:0f:ae:e0:f9:20:31:43:40:c1:93:96:4b:f0:78:2f:f1:7b:e4:25:e0:c1:3c:17:40:60:30:98:18:a3:c1:41:29:f2:f9:a0:b9:f3:ea:5e:df:bb:67:16:23:86:01:22:79:b6:b9:35:50:e1:f9:4e:aa:78:02:1a:61:a2:16:60:14:60:5a:87:93:4a:b4:5b:ea:e5:80:f8:30:85:a9:4b:c3:ff:13:e9:0f:04:ad:30:ad:33:72:9c:ad:8b:07:80:d8:db:4c:4c:26:05:18:38:14:41:7f:87:e1:8b:a5:ae:5d:dd:a7:58:b7:84:0d:a8:d8:42:d1:f1:5f:cc:2c:9f:9a:bf:23:95:05:18:16:30:18:9b:04:8a:c0:7b:cf:be:ab:66:c0:f2:10:b6:78:86:8c:32:19:c8:41:4f:ab:9a:e5:b0:46:5c:18:70:3d:ab:87:cd:f0:50:83:01:08:bd:1d:6b:61:49:c3:2a:76:97:2b:83:54:8c:7e:f1:67:b6:a6:32:b6:12:ba:af:f8:b5:06:13:36:0b:ac:2a:bd:28:a6:c9:1f:49:d3:7d:01:03:7b:f1:e9:b0:e2:69:34:ba:c6:d7:72:c5:cb:96:f8:64:12:61:e0:88:48:46:9a:81:c0:fe:9a:fc:58:64:75:5e:63:6b:31:fe:8f:99:f0:8b:80:9e:27:05:08:e8:ae:a7:69:10:8b:0d:3d:76:ed:48:95:48:14:64:8c:5c:07:41:58:ae:a1:69:b1:a5:c3:64:f7:e1:41:63:b5:c8:8d:e2:92:72:69:52:28:fa:9f:22:7a:93:ce:86:3a:c6:4c:29:36:f2:ff:6c:f2:39:38:e3:2c:e9:d2:f6:ed:a2:b7:85:d0:3d:62:af:5d:79:31:23:c0:2d:6f:81:44:d8:85:19:e5:8e:86:1b:1a:a4:67:52:b6:5b:51:02:50:91:82:ac:3f:03:af:46:a6:66:2e:fb:c0:de:a9:a1" value="a2f0195894582c607e2b2c0ab15d0b17ae6d7d4a6160fd4e9ca062d158bc216883f2350b1805b763a58061a1c969933a9634c4c8377a65d0f90583732305ab430de651184c2f4be57a28850a45afe08e196cafd82d960a817801ea8b820b45e07020e07cce4030aef03dcd5b3f3512d6f29aa4684f23785212c1087c23fa082d15ce95c255ac287b7f7a71d543cd83b4199061f0f41483b6fcdddac76d6be82b9fc12412807c180e7fe3e6c743ffc12c75ee8298b60315f9806021ad88a580c8346fc5a938394187a0c10281c2d4a90721f7419133296e2e8e6a2a4b16e02de7bdcef089f59ef210b2b0780829c3a2f28093c83c0414a0c88bc6413789812187a0f87ffbb5262483814ed8c8327440ee0315fc17c985862aa0630505a706462d6f83086b01c6c353064149f0782ff94ba02df03006ce02033437c09cd032af83c17fbe901f1fffb15697f3e2502f8510296f6741568c81a7e8e595c1907c182882ce2b104443cab79418ad9e95081f060c9f84a2bd879baacda01eada420aba0c14d0faee0f920314340c193964bf0782ff17be425e0c13c174060309818a3c14129f2f9a0b9f3ea5edfbb67162386012279b6b93550e1f94eaa78021a61a2166014605a87934ab45beae580f83085a94bc3ff13e90f04ad30ad33729cad8b0780d8db4c4c2605183814417f87e18ba5ae5ddda758b7840da8d842d1f15fcc2c9f9abf239505181630189b048ac07bcfbeab66c0f210b678868c3219c8414fab9ae5b0465c18703dab87cdf050830108bd1d6b6149c32a76972b83548c7ef167b6a632b612baaff8b50613360bac2abd28a6c91f49d37d01037bf1e9b0e26934bac6d772c5cb96f8641261e08848469a81c0fe9afc5864755e636b31fe8f99f08b809e270508e8aea769108b0d3d76ed48954814648c5c074158aea169b1a5c364f7e14163b5c88de29272695228fa9f227a93ce863ac64c2936f2ff6cf23938e32ce9d2f6eda2b785d03d62af5d793123c02d6f8144d88519e58e861b1aa46752b65b5102509182ac3f03af46a6662efbc0dea9a1"/>
    <field name="rtp.padding.data" showname="Padding data: 41a9c2a2058dfe8c5e8fb38b93a59710d3b18746b4e15275..." size="214" pos="851" show="41:a9:c2:a2:05:8d:fe:8c:5e:8f:b3:8b:93:a5:97:10:d3:b1:87:46:b4:e1:52:75:ed:49:48:78:5b:27:94:bf:ed:51:82:73:5e:4c:59:cd:01:19:5b:42:08:08:02:ec:10:c1:95:08:c2:4a:4f:a6:1f:b5:3f:36:71:11:3a:42:6b:e3:f0:73:62:ce:31:41:f6:a0:d0:10:81:82:04:06:54:ca:ba:3e:2b:48:dd:35:25:84:96:40:a5:84:0d:62:1e:39:f0:85:e4:e2:22:82:57:0d:2a:1e:96:2d:a4:42:ca:c7:c3:9b:d8:46:d5:03:f0:61:bf:c5:31:25:f0:19:7f:8a:52:0b:19:8a:06:0c:22:b0:2e:65:b6:0c:08:7a:a0:10:bf:75:11:6c:0c:9f:c1:80:e0:30:2b:42:0f:72:01:61:6d:83:c0:7e:fe:9a:b6:0c:d3:6a:2f:38:df:86:71:73:e2:10:78:08:1c:40:f3:43:e2:e8:5f:2f:74:2f:6f:6a:85:57:43:7e:0d:45:fe:98:73:b6:86:c1:93:db:4d:4a:d3:b0:e4:0f" value="41a9c2a2058dfe8c5e8fb38b93a59710d3b18746b4e15275ed4948785b2794bfed5182735e4c59cd01195b42080802ec10c19508c24a4fa61fb53f3671113a426be3f07362ce3141f6a0d0108182040654caba3e2b48dd3525849640a5840d621e39f085e4e22282570d2a1e962da442cac7c39bd846d503f061bfc53125f0197f8a520b198a060c22b02e65b60c087aa010bf75116c0c9fc180e0302b420f7201616d83c07efe9ab60cd36a2f38df867173e21078081c40f343e2e85f2f742f6f6a8557437e0d45fe9873b686c193db4d4ad3b0e40f"/>
    <field name="rtp.padding.count" showname="Padding count: 215" size="1" pos="1065" show="215" value="d7"/>
  </proto>
</packet>



<packet>
  <proto name="geninfo" pos="0" showname="General information" size="1066">
    <field name="num" pos="0" show="1295" showname="Number" value="50f" size="1066"/>
    <field name="len" pos="0" show="1066" showname="Frame Length" value="42a" size="1066"/>
    <field name="caplen" pos="0" show="1066" showname="Captured Length" value="42a" size="1066"/>
    <field name="timestamp" pos="0" show="Jan  4, 2013 08:45:22.098523000 MSK" showname="Captured Time" value="1357274722.098523000" size="1066"/>
  </proto>
  <proto name="frame" showname="Frame 1295: 1066 bytes on wire (8528 bits), 1066 bytes captured (8528 bits)" size="1066" pos="0">
    <field name="frame.encap_type" showname="Encapsulation type: Ethernet (1)" size="0" pos="0" show="1"/>
    <field name="frame.time" showname="Arrival Time: Jan  4, 2013 08:45:22.098523000 MSK" size="0" pos="0" show="Jan  4, 2013 08:45:22.098523000 MSK"/>
    <field name="frame.offset_shift" showname="Time shift for this packet: 0.000000000 seconds" size="0" pos="0" show="0.000000000"/>
    <field name="frame.time_epoch" showname="Epoch Time: 1357274722.098523000 seconds" size="0" pos="0" show="1357274722.098523000"/>
    <field name="frame.time_delta" showname="Time delta from previous captured frame: 0.016052000 seconds" size="0" pos="0" show="0.016052000"/>
    <field name="frame.time_delta_displayed" showname="Time delta from previous displayed frame: 0.016052000 seconds" size="0" pos="0" show="0.016052000"/>
    <field name="frame.time_relative" showname="Time since reference or first frame: 26.597705000 seconds" size="0" pos="0" show="26.597705000"/>
    <field name="frame.number" showname="Frame Number: 1295" size="0" pos="0" show="1295"/>
    <field name="frame.len" showname="Frame Length: 1066 bytes (8528 bits)" size="0" pos="0" show="1066"/>
    <field name="frame.cap_len" showname="Capture Length: 1066 bytes (8528 bits)" size="0" pos="0" show="1066"/>
    <field name="frame.marked" showname="Frame is marked: False" size="0" pos="0" show="0"/>
    <field name="frame.ignored" showname="Frame is ignored: False" size="0" pos="0" show="0"/>
    <field name="frame.protocols" showname="Protocols in frame: eth:ethertype:ip:udp:rtp" size="0" pos="0" show="eth:ethertype:ip:udp:rtp"/>
    <field name="frame.coloring_rule.name" showname="Coloring Rule Name: UDP" size="0" pos="0" show="UDP"/>
    <field name="frame.coloring_rule.string" showname="Coloring Rule String: udp" size="0" pos="0" show="udp"/>
  </proto>
  <proto name="eth" showname="Ethernet II, Src: Wiznet_15:ce:e3 (00:08:dc:15:ce:e3), Dst: Dell_e7:b6:7e (bc:30:5b:e7:b6:7e)" size="14" pos="0">
    <field name="eth.dst" showname="Destination: Dell_e7:b6:7e (bc:30:5b:e7:b6:7e)" size="6" pos="0" show="bc:30:5b:e7:b6:7e" value="bc305be7b67e">
      <field name="eth.dst_resolved" showname="Destination (resolved): Dell_e7:b6:7e" hide="yes" size="6" pos="0" show="Dell_e7:b6:7e" value="bc305be7b67e"/>
      <field name="eth.addr" showname="Address: Dell_e7:b6:7e (bc:30:5b:e7:b6:7e)" size="6" pos="0" show="bc:30:5b:e7:b6:7e" value="bc305be7b67e"/>
      <field name="eth.addr_resolved" showname="Address (resolved): Dell_e7:b6:7e" hide="yes" size="6" pos="0" show="Dell_e7:b6:7e" value="bc305be7b67e"/>
      <field name="eth.lg" showname=".... ..0. .... .... .... .... = LG bit: Globally unique address (factory default)" size="3" pos="0" show="0" value="0" unmaskedvalue="bc305b"/>
      <field name="eth.ig" showname=".... ...0 .... .... .... .... = IG bit: Individual address (unicast)" size="3" pos="0" show="0" value="0" unmaskedvalue="bc305b"/>
    </field>
    <field name="eth.src" showname="Source: Wiznet_15:ce:e3 (00:08:dc:15:ce:e3)" size="6" pos="6" show="00:08:dc:15:ce:e3" value="0008dc15cee3">
      <field name="eth.src_resolved" showname="Source (resolved): Wiznet_15:ce:e3" hide="yes" size="6" pos="6" show="Wiznet_15:ce:e3" value="0008dc15cee3"/>
      <field name="eth.addr" showname="Address: Wiznet_15:ce:e3 (00:08:dc:15:ce:e3)" size="6" pos="6" show="00:08:dc:15:ce:e3" value="0008dc15cee3"/>
      <field name="eth.addr_resolved" showname="Address (resolved): Wiznet_15:ce:e3" hide="yes" size="6" pos="6" show="Wiznet_15:ce:e3" value="0008dc15cee3"/>
      <field name="eth.lg" showname=".... ..0. .... .... .... .... = LG bit: Globally unique address (factory default)" size="3" pos="6" show="0" value="0" unmaskedvalue="0008dc"/>
      <field name="eth.ig" showname=".... ...0 .... .... .... .... = IG bit: Individual address (unicast)" size="3" pos="6" show="0" value="0" unmaskedvalue="0008dc"/>
    </field>
    <field name="eth.type" showname="Type: IP (0x0800)" size="2" pos="12" show="2048" value="0800"/>
  </proto>
  <proto name="ip" showname="Internet Protocol Version 4, Src: 192.168.1.200 (192.168.1.200), Dst: 192.168.1.202 (192.168.1.202)" size="20" pos="14">
    <field name="ip.version" showname="Version: 4" size="1" pos="14" show="4" value="45"/>
    <field name="ip.hdr_len" showname="Header Length: 20 bytes" size="1" pos="14" show="20" value="45"/>
    <field name="ip.dsfield" showname="Differentiated Services Field: 0x00 (DSCP 0x00: Default; ECN: 0x00: Not-ECT (Not ECN-Capable Transport))" size="1" pos="15" show="0" value="00">
      <field name="ip.dsfield.dscp" showname="0000 00.. = Differentiated Services Codepoint: Default (0x00)" size="1" pos="15" show="0" value="0" unmaskedvalue="00"/>
      <field name="ip.dsfield.ecn" showname=".... ..00 = Explicit Congestion Notification: Not-ECT (Not ECN-Capable Transport) (0x00)" size="1" pos="15" show="0" value="0" unmaskedvalue="00"/>
    </field>
    <field name="ip.len" showname="Total Length: 1052" size="2" pos="16" show="1052" value="041c"/>
    <field name="ip.id" showname="Identification: 0x04ac (1196)" size="2" pos="18" show="1196" value="04ac"/>
    <field name="ip.flags" showname="Flags: 0x02 (Don&apos;t Fragment)" size="1" pos="20" show="2" value="40">
      <field name="ip.flags.rb" showname="0... .... = Reserved bit: Not set" size="1" pos="20" show="0" value="40"/>
      <field name="ip.flags.df" showname=".1.. .... = Don&apos;t fragment: Set" size="1" pos="20" show="1" value="40"/>
      <field name="ip.flags.mf" showname="..0. .... = More fragments: Not set" size="1" pos="20" show="0" value="40"/>
    </field>
    <field name="ip.frag_offset" showname="Fragment offset: 0" size="2" pos="20" show="0" value="4000"/>
    <field name="ip.ttl" showname="Time to live: 128" size="1" pos="22" show="128" value="80"/>
    <field name="ip.proto" showname="Protocol: UDP (17)" size="1" pos="23" show="17" value="11"/>
    <field name="ip.checksum" showname="Header checksum: 0x6d42 [validation disabled]" size="2" pos="24" show="27970" value="6d42">
      <field name="ip.checksum_good" showname="Good: False" size="2" pos="24" show="0" value="6d42"/>
      <field name="ip.checksum_bad" showname="Bad: False" size="2" pos="24" show="0" value="6d42"/>
    </field>
    <field name="ip.src" showname="Source: 192.168.1.200 (192.168.1.200)" size="4" pos="26" show="192.168.1.200" value="c0a801c8"/>
    <field name="ip.addr" showname="Source or Destination Address: 192.168.1.200 (192.168.1.200)" hide="yes" size="4" pos="26" show="192.168.1.200" value="c0a801c8"/>
    <field name="ip.src_host" showname="Source Host: 192.168.1.200" hide="yes" size="4" pos="26" show="192.168.1.200" value="c0a801c8"/>
    <field name="ip.host" showname="Source or Destination Host: 192.168.1.200" hide="yes" size="4" pos="26" show="192.168.1.200" value="c0a801c8"/>
    <field name="ip.dst" showname="Destination: 192.168.1.202 (192.168.1.202)" size="4" pos="30" show="192.168.1.202" value="c0a801ca"/>
    <field name="ip.addr" showname="Source or Destination Address: 192.168.1.202 (192.168.1.202)" hide="yes" size="4" pos="30" show="192.168.1.202" value="c0a801ca"/>
    <field name="ip.dst_host" showname="Destination Host: 192.168.1.202" hide="yes" size="4" pos="30" show="192.168.1.202" value="c0a801ca"/>
    <field name="ip.host" showname="Source or Destination Host: 192.168.1.202" hide="yes" size="4" pos="30" show="192.168.1.202" value="c0a801ca"/>
    <field name="" show="Source GeoIP: Unknown" size="4" pos="26" value="c0a801c8"/>
    <field name="" show="Destination GeoIP: Unknown" size="4" pos="30" value="c0a801ca"/>
  </proto>
  <proto name="udp" showname="User Datagram Protocol, Src Port: 8 (8), Dst Port: 8080 (8080)" size="8" pos="34">
    <field name="udp.srcport" showname="Source Port: 8 (8)" size="2" pos="34" show="8" value="0008"/>
    <field name="udp.dstport" showname="Destination Port: 8080 (8080)" size="2" pos="36" show="8080" value="1f90"/>
    <field name="udp.port" showname="Source or Destination Port: 8" hide="yes" size="2" pos="34" show="8" value="0008"/>
    <field name="udp.port" showname="Source or Destination Port: 8080" hide="yes" size="2" pos="36" show="8080" value="1f90"/>
    <field name="udp.length" showname="Length: 1032" size="2" pos="38" show="1032" value="0408"/>
    <field name="udp.checksum_coverage" showname="Checksum coverage: 1032" hide="yes" size="0" pos="38" show="1032"/>
    <field name="udp.checksum" showname="Checksum: 0x07f5 [validation disabled]" size="2" pos="40" show="2037" value="07f5">
      <field name="udp.checksum_good" showname="Good Checksum: False" size="2" pos="40" show="0" value="07f5"/>
      <field name="udp.checksum_bad" showname="Bad Checksum: False" size="2" pos="40" show="0" value="07f5"/>
    </field>
    <field name="udp.stream" showname="Stream index: 6" size="0" pos="42" show="6"/>
  </proto>
  <proto name="rtp" showname="Real-Time Transport Protocol" size="1024" pos="42">
    <field name="rtp.version" showname="10.. .... = Version: RFC 1889 Version (2)" size="1" pos="42" show="2" value="2" unmaskedvalue="aa"/>
    <field name="rtp.padding" showname="..1. .... = Padding: True" size="1" pos="42" show="1" value="1" unmaskedvalue="aa"/>
    <field name="rtp.ext" showname="...0 .... = Extension: False" size="1" pos="42" show="0" value="0" unmaskedvalue="aa"/>
    <field name="rtp.cc" showname=".... 1010 = Contributing source identifiers count: 10" size="1" pos="42" show="10" value="A" unmaskedvalue="aa"/>
    <field name="rtp.marker" showname="1... .... = Marker: True" size="1" pos="43" show="1" value="1" unmaskedvalue="84"/>
    <field name="rtp.p_type" showname="Payload type: ITU-T G.723 (4)" size="1" pos="43" show="4" value="4" unmaskedvalue="84"/>
    <field name="rtp.seq" showname="Sequence number: 786" size="2" pos="46" show="786" value="0312"/>
    <field name="rtp.timestamp" showname="Timestamp: 188640" size="4" pos="48" show="188640" value="0002e0e0"/>
    <field name="rtp.ssrc" showname="Synchronization Source identifier: 0x43f6af95 (1140240277)" size="4" pos="50" show="1140240277" value="43f6af95"/>
    <field name="rtp.csrc.items" showname="Contributing Source identifiers (10 items)" size="40" pos="54" show="" value="">
      <field name="rtp.csrc.item" showname="CSRC item 0: 0xDE93B269" size="4" pos="54" show="3734221417" value="de93b269"/>
      <field name="rtp.csrc.item" showname="CSRC item 1: 0xC9B0D3E2" size="4" pos="58" show="3383808994" value="c9b0d3e2"/>
      <field name="rtp.csrc.item" showname="CSRC item 2: 0xB471ED90" size="4" pos="62" show="3027365264" value="b471ed90"/>
      <field name="rtp.csrc.item" showname="CSRC item 3: 0x1F043D6B" size="4" pos="66" show="520371563" value="1f043d6b"/>
      <field name="rtp.csrc.item" showname="CSRC item 4: 0x99ABC158" size="4" pos="70" show="2578170200" value="99abc158"/>
      <field name="rtp.csrc.item" showname="CSRC item 5: 0x887C25A6" size="4" pos="74" show="2289837478" value="887c25a6"/>
      <field name="rtp.csrc.item" showname="CSRC item 6: 0xF814307E" size="4" pos="78" show="4162072702" value="f814307e"/>
      <field name="rtp.csrc.item" showname="CSRC item 7: 0xB8300F99" size="4" pos="82" show="3090157465" value="b8300f99"/>
      <field name="rtp.csrc.item" showname="CSRC item 8: 0x5042F4C0" size="4" pos="86" show="1346565312" value="5042f4c0"/>
      <field name="rtp.csrc.item" showname="CSRC item 9: 0xAC32D8A9" size="4" pos="90" show="2889013417" value="ac32d8a9"/>
    </field>
    <field name="rtp.payload" showname="Payload: a2f0195894582c607e2b2c0ab15d0b17ae6d7d4a6160fd4e..." size="757" pos="94" show="a2:f0:19:58:94:58:2c:60:7e:2b:2c:0a:b1:5d:0b:17:ae:6d:7d:4a:61:60:fd:4e:9c:a0:62:d1:58:bc:21:68:83:f2:35:0b:18:05:b7:63:a5:80:61:a1:c9:69:93:3a:96:34:c4:c8:37:7a:65:d0:f9:05:83:73:23:05:ab:43:0d:e6:51:18:4c:2f:4b:e5:7a:28:85:0a:45:af:e0:8e:19:6c:af:d8:2d:96:0a:81:78:01:ea:8b:82:0b:45:e0:70:20:e0:7c:ce:40:30:ae:f0:3d:cd:5b:3f:35:12:d6:f2:9a:a4:68:4f:23:78:52:12:c1:08:7c:23:fa:08:2d:15:ce:95:c2:55:ac:28:7b:7f:7a:71:d5:43:cd:83:b4:19:90:61:f0:f4:14:83:b6:fc:dd:da:c7:6d:6b:e8:2b:9f:c1:24:12:80:7c:18:0e:7f:e3:e6:c7:43:ff:c1:2c:75:ee:82:98:b6:03:15:f9:80:60:21:ad:88:a5:80:c8:34:6f:c5:a9:38:39:41:87:a0:c1:02:81:c2:d4:a9:07:21:f7:41:91:33:29:6e:2e:8e:6a:2a:4b:16:e0:2d:e7:bd:ce:f0:89:f5:9e:f2:10:b2:b0:78:08:29:c3:a2:f2:80:93:c8:3c:04:14:a0:c8:8b:c6:41:37:89:81:21:87:a0:f8:7f:fb:b5:26:24:83:81:4e:d8:c8:32:74:40:ee:03:15:fc:17:c9:85:86:2a:a0:63:05:05:a7:06:46:2d:6f:83:08:6b:01:c6:c3:53:06:41:49:f0:78:2f:f9:4b:a0:2d:f0:30:06:ce:02:03:34:37:c0:9c:d0:32:af:83:c1:7f:be:90:1f:1f:ff:b1:56:97:f3:e2:50:2f:85:10:29:6f:67:41:56:8c:81:a7:e8:e5:95:c1:90:7c:18:28:82:ce:2b:10:44:43:ca:b7:94:18:ad:9e:95:08:1f:06:0c:9f:84:a2:bd:87:9b:aa:cd:a0:1e:ad:a4:20:ab:a0:c1:4d:0f:ae:e0:f9:20:31:43:40:c1:93:96:4b:f0:78:2f:f1:7b:e4:25:e0:c1:3c:17:40:60:30:98:18:a3:c1:41:29:f2:f9:a0:b9:f3:ea:5e:df:bb:67:16:23:86:01:22:79:b6:b9:35:50:e1:f9:4e:aa:78:02:1a:61:a2:16:60:14:60:5a:87:93:4a:b4:5b:ea:e5:80:f8:30:85:a9:4b:c3:ff:13:e9:0f:04:ad:30:ad:33:72:9c:ad:8b:07:80:d8:db:4c:4c:26:05:18:38:14:41:7f:87:e1:8b:a5:ae:5d:dd:a7:58:b7:84:0d:a8:d8:42:d1:f1:5f:cc:2c:9f:9a:bf:23:95:05:18:16:30:18:9b:04:8a:c0:7b:cf:be:ab:66:c0:f2:10:b6:78:86:8c:32:19:c8:41:4f:ab:9a:e5:b0:46:5c:18:70:3d:ab:87:cd:f0:50:83:01:08:bd:1d:6b:61:49:c3:2a:76:97:2b:83:54:8c:7e:f1:67:b6:a6:32:b6:12:ba:af:f8:b5:06:13:36:0b:ac:2a:bd:28:a6:c9:1f:49:d3:7d:01:03:7b:f1:e9:b0:e2:69:34:ba:c6:d7:72:c5:cb:96:f8:64:12:61:e0:88:48:46:9a:81:c0:fe:9a:fc:58:64:75:5e:63:6b:31:fe:8f:99:f0:8b:80:9e:27:05:08:e8:ae:a7:69:10:8b:0d:3d:76:ed:48:95:48:14:64:8c:5c:07:41:58:ae:a1:69:b1:a5:c3:64:f7:e1:41:63:b5:c8:8d:e2:92:72:69:52:28:fa:9f:22:7a:93:ce:86:3a:c6:4c:29:36:f2:ff:6c:f2:39:38:e3:2c:e9:d2:f6:ed:a2:b7:85:d0:3d:62:af:5d:79:31:23:c0:2d:6f:81:44:d8:85:19:e5:8e:86:1b:1a:a4:67:52:b6:5b:51:02:50:91:82:ac:3f:03:af:46:a6:66:2e:fb:c0:de:a9:a1" value="a2f0195894582c607e2b2c0ab15d0b17ae6d7d4a6160fd4e9ca062d158bc216883f2350b1805b763a58061a1c969933a9634c4c8377a65d0f90583732305ab430de651184c2f4be57a28850a45afe08e196cafd82d960a817801ea8b820b45e07020e07cce4030aef03dcd5b3f3512d6f29aa4684f23785212c1087c23fa082d15ce95c255ac287b7f7a71d543cd83b4199061f0f41483b6fcdddac76d6be82b9fc12412807c180e7fe3e6c743ffc12c75ee8298b60315f9806021ad88a580c8346fc5a938394187a0c10281c2d4a90721f7419133296e2e8e6a2a4b16e02de7bdcef089f59ef210b2b0780829c3a2f28093c83c0414a0c88bc6413789812187a0f87ffbb5262483814ed8c8327440ee0315fc17c985862aa0630505a706462d6f83086b01c6c353064149f0782ff94ba02df03006ce02033437c09cd032af83c17fbe901f1fffb15697f3e2502f8510296f6741568c81a7e8e595c1907c182882ce2b104443cab79418ad9e95081f060c9f84a2bd879baacda01eada420aba0c14d0faee0f920314340c193964bf0782ff17be425e0c13c174060309818a3c14129f2f9a0b9f3ea5edfbb67162386012279b6b93550e1f94eaa78021a61a2166014605a87934ab45beae580f83085a94bc3ff13e90f04ad30ad33729cad8b0780d8db4c4c2605183814417f87e18ba5ae5ddda758b7840da8d842d1f15fcc2c9f9abf239505181630189b048ac07bcfbeab66c0f210b678868c3219c8414fab9ae5b0465c18703dab87cdf050830108bd1d6b6149c32a76972b83548c7ef167b6a632b612baaff8b50613360bac2abd28a6c91f49d37d01037bf1e9b0e26934bac6d772c5cb96f8641261e08848469a81c0fe9afc5864755e636b31fe8f99f08b809e270508e8aea769108b0d3d76ed48954814648c5c074158aea169b1a5c364f7e14163b5c88de29272695228fa9f227a93ce863ac64c2936f2ff6cf23938e32ce9d2f6eda2b785d03d62af5d793123c02d6f8144d88519e58e861b1aa46752b65b5102509182ac3f03af46a6662efbc0dea9a1"/>
    <field name="rtp.padding.data" showname="Padding data: 41a9c2a2058dfe8c5e8fb38b93a59710d3b18746b4e15275..." size="214" pos="851" show="41:a9:c2:a2:05:8d:fe:8c:5e:8f:b3:8b:93:a5:97:10:d3:b1:87:46:b4:e1:52:75:ed:49:48:78:5b:27:94:bf:ed:51:82:73:5e:4c:59:cd:01:19:5b:42:08:08:02:ec:10:c1:95:08:c2:4a:4f:a6:1f:b5:3f:36:71:11:3a:42:6b:e3:f0:73:62:ce:31:41:f6:a0:d0:10:81:82:04:06:54:ca:ba:3e:2b:48:dd:35:25:84:96:40:a5:84:0d:62:1e:39:f0:85:e4:e2:22:82:57:0d:2a:1e:96:2d:a4:42:ca:c7:c3:9b:d8:46:d5:03:f0:61:bf:c5:31:25:f0:19:7f:8a:52:0b:19:8a:06:0c:22:b0:2e:65:b6:0c:08:7a:a0:10:bf:75:11:6c:0c:9f:c1:80:e0:30:2b:42:0f:72:01:61:6d:83:c0:7e:fe:9a:b6:0c:d3:6a:2f:38:df:86:71:73:e2:10:78:08:1c:40:f3:43:e2:e8:5f:2f:74:2f:6f:6a:85:57:43:7e:0d:45:fe:98:73:b6:86:c1:93:db:4d:4a:d3:b0:e4:0f" value="41a9c2a2058dfe8c5e8fb38b93a59710d3b18746b4e15275ed4948785b2794bfed5182735e4c59cd01195b42080802ec10c19508c24a4fa61fb53f3671113a426be3f07362ce3141f6a0d0108182040654caba3e2b48dd3525849640a5840d621e39f085e4e22282570d2a1e962da442cac7c39bd846d503f061bfc53125f0197f8a520b198a060c22b02e65b60c087aa010bf75116c0c9fc180e0302b420f7201616d83c07efe9ab60cd36a2f38df867173e21078081c40f343e2e85f2f742f6f6a8557437e0d45fe9873b686c193db4d4ad3b0e40f"/>
    <field name="rtp.padding.count" showname="Padding count: 215" size="1" pos="1065" show="215" value="d7"/>
  </proto>
</packet>




<packet>
  <proto name="geninfo" pos="0" showname="General information" size="1066">
    <field name="num" pos="0" show="1295" showname="Number" value="50f" size="1066"/>
    <field name="len" pos="0" show="1066" showname="Frame Length" value="42a" size="1066"/>
    <field name="caplen" pos="0" show="1066" showname="Captured Length" value="42a" size="1066"/>
    <field name="timestamp" pos="0" show="Jan  4, 2013 08:45:22.098523000 MSK" showname="Captured Time" value="1357274722.098523000" size="1066"/>
  </proto>
  <proto name="frame" showname="Frame 1295: 1066 bytes on wire (8528 bits), 1066 bytes captured (8528 bits)" size="1066" pos="0">
    <field name="frame.encap_type" showname="Encapsulation type: Ethernet (1)" size="0" pos="0" show="1"/>
    <field name="frame.time" showname="Arrival Time: Jan  4, 2013 08:45:22.098523000 MSK" size="0" pos="0" show="Jan  4, 2013 08:45:22.098523000 MSK"/>
    <field name="frame.offset_shift" showname="Time shift for this packet: 0.000000000 seconds" size="0" pos="0" show="0.000000000"/>
    <field name="frame.time_epoch" showname="Epoch Time: 1357274722.098523000 seconds" size="0" pos="0" show="1357274722.098523000"/>
    <field name="frame.time_delta" showname="Time delta from previous captured frame: 0.016052000 seconds" size="0" pos="0" show="0.016052000"/>
    <field name="frame.time_delta_displayed" showname="Time delta from previous displayed frame: 0.016052000 seconds" size="0" pos="0" show="0.016052000"/>
    <field name="frame.time_relative" showname="Time since reference or first frame: 26.597705000 seconds" size="0" pos="0" show="26.597705000"/>
    <field name="frame.number" showname="Frame Number: 1295" size="0" pos="0" show="1295"/>
    <field name="frame.len" showname="Frame Length: 1066 bytes (8528 bits)" size="0" pos="0" show="1066"/>
    <field name="frame.cap_len" showname="Capture Length: 1066 bytes (8528 bits)" size="0" pos="0" show="1066"/>
    <field name="frame.marked" showname="Frame is marked: False" size="0" pos="0" show="0"/>
    <field name="frame.ignored" showname="Frame is ignored: False" size="0" pos="0" show="0"/>
    <field name="frame.protocols" showname="Protocols in frame: eth:ethertype:ip:udp:rtp" size="0" pos="0" show="eth:ethertype:ip:udp:rtp"/>
    <field name="frame.coloring_rule.name" showname="Coloring Rule Name: UDP" size="0" pos="0" show="UDP"/>
    <field name="frame.coloring_rule.string" showname="Coloring Rule String: udp" size="0" pos="0" show="udp"/>
  </proto>
  <proto name="eth" showname="Ethernet II, Src: Wiznet_15:ce:e3 (00:08:dc:15:ce:e3), Dst: Dell_e7:b6:7e (bc:30:5b:e7:b6:7e)" size="14" pos="0">
    <field name="eth.dst" showname="Destination: Dell_e7:b6:7e (bc:30:5b:e7:b6:7e)" size="6" pos="0" show="bc:30:5b:e7:b6:7e" value="bc305be7b67e">
      <field name="eth.dst_resolved" showname="Destination (resolved): Dell_e7:b6:7e" hide="yes" size="6" pos="0" show="Dell_e7:b6:7e" value="bc305be7b67e"/>
      <field name="eth.addr" showname="Address: Dell_e7:b6:7e (bc:30:5b:e7:b6:7e)" size="6" pos="0" show="bc:30:5b:e7:b6:7e" value="bc305be7b67e"/>
      <field name="eth.addr_resolved" showname="Address (resolved): Dell_e7:b6:7e" hide="yes" size="6" pos="0" show="Dell_e7:b6:7e" value="bc305be7b67e"/>
      <field name="eth.lg" showname=".... ..0. .... .... .... .... = LG bit: Globally unique address (factory default)" size="3" pos="0" show="0" value="0" unmaskedvalue="bc305b"/>
      <field name="eth.ig" showname=".... ...0 .... .... .... .... = IG bit: Individual address (unicast)" size="3" pos="0" show="0" value="0" unmaskedvalue="bc305b"/>
    </field>
    <field name="eth.src" showname="Source: Wiznet_15:ce:e3 (00:08:dc:15:ce:e3)" size="6" pos="6" show="00:08:dc:15:ce:e3" value="0008dc15cee3">
      <field name="eth.src_resolved" showname="Source (resolved): Wiznet_15:ce:e3" hide="yes" size="6" pos="6" show="Wiznet_15:ce:e3" value="0008dc15cee3"/>
      <field name="eth.addr" showname="Address: Wiznet_15:ce:e3 (00:08:dc:15:ce:e3)" size="6" pos="6" show="00:08:dc:15:ce:e3" value="0008dc15cee3"/>
      <field name="eth.addr_resolved" showname="Address (resolved): Wiznet_15:ce:e3" hide="yes" size="6" pos="6" show="Wiznet_15:ce:e3" value="0008dc15cee3"/>
      <field name="eth.lg" showname=".... ..0. .... .... .... .... = LG bit: Globally unique address (factory default)" size="3" pos="6" show="0" value="0" unmaskedvalue="0008dc"/>
      <field name="eth.ig" showname=".... ...0 .... .... .... .... = IG bit: Individual address (unicast)" size="3" pos="6" show="0" value="0" unmaskedvalue="0008dc"/>
    </field>
    <field name="eth.type" showname="Type: IP (0x0800)" size="2" pos="12" show="2048" value="0800"/>
  </proto>
  <proto name="ip" showname="Internet Protocol Version 4, Src: 192.168.1.200 (192.168.1.200), Dst: 192.168.1.202 (192.168.1.202)" size="20" pos="14">
    <field name="ip.version" showname="Version: 4" size="1" pos="14" show="4" value="45"/>
    <field name="ip.hdr_len" showname="Header Length: 20 bytes" size="1" pos="14" show="20" value="45"/>
    <field name="ip.dsfield" showname="Differentiated Services Field: 0x00 (DSCP 0x00: Default; ECN: 0x00: Not-ECT (Not ECN-Capable Transport))" size="1" pos="15" show="0" value="00">
      <field name="ip.dsfield.dscp" showname="0000 00.. = Differentiated Services Codepoint: Default (0x00)" size="1" pos="15" show="0" value="0" unmaskedvalue="00"/>
      <field name="ip.dsfield.ecn" showname=".... ..00 = Explicit Congestion Notification: Not-ECT (Not ECN-Capable Transport) (0x00)" size="1" pos="15" show="0" value="0" unmaskedvalue="00"/>
    </field>
    <field name="ip.len" showname="Total Length: 1052" size="2" pos="16" show="1052" value="041c"/>
    <field name="ip.id" showname="Identification: 0x04ac (1196)" size="2" pos="18" show="1196" value="04ac"/>
    <field name="ip.flags" showname="Flags: 0x02 (Don&apos;t Fragment)" size="1" pos="20" show="2" value="40">
      <field name="ip.flags.rb" showname="0... .... = Reserved bit: Not set" size="1" pos="20" show="0" value="40"/>
      <field name="ip.flags.df" showname=".1.. .... = Don&apos;t fragment: Set" size="1" pos="20" show="1" value="40"/>
      <field name="ip.flags.mf" showname="..0. .... = More fragments: Not set" size="1" pos="20" show="0" value="40"/>
    </field>
    <field name="ip.frag_offset" showname="Fragment offset: 0" size="2" pos="20" show="0" value="4000"/>
    <field name="ip.ttl" showname="Time to live: 128" size="1" pos="22" show="128" value="80"/>
    <field name="ip.proto" showname="Protocol: UDP (17)" size="1" pos="23" show="17" value="11"/>
    <field name="ip.checksum" showname="Header checksum: 0x6d42 [validation disabled]" size="2" pos="24" show="27970" value="6d42">
      <field name="ip.checksum_good" showname="Good: False" size="2" pos="24" show="0" value="6d42"/>
      <field name="ip.checksum_bad" showname="Bad: False" size="2" pos="24" show="0" value="6d42"/>
    </field>
    <field name="ip.src" showname="Source: 192.168.1.200 (192.168.1.200)" size="4" pos="26" show="192.168.1.200" value="c0a801c8"/>
    <field name="ip.addr" showname="Source or Destination Address: 192.168.1.200 (192.168.1.200)" hide="yes" size="4" pos="26" show="192.168.1.200" value="c0a801c8"/>
    <field name="ip.src_host" showname="Source Host: 192.168.1.200" hide="yes" size="4" pos="26" show="192.168.1.200" value="c0a801c8"/>
    <field name="ip.host" showname="Source or Destination Host: 192.168.1.200" hide="yes" size="4" pos="26" show="192.168.1.200" value="c0a801c8"/>
    <field name="ip.dst" showname="Destination: 192.168.1.202 (192.168.1.202)" size="4" pos="30" show="192.168.1.202" value="c0a801ca"/>
    <field name="ip.addr" showname="Source or Destination Address: 192.168.1.202 (192.168.1.202)" hide="yes" size="4" pos="30" show="192.168.1.202" value="c0a801ca"/>
    <field name="ip.dst_host" showname="Destination Host: 192.168.1.202" hide="yes" size="4" pos="30" show="192.168.1.202" value="c0a801ca"/>
    <field name="ip.host" showname="Source or Destination Host: 192.168.1.202" hide="yes" size="4" pos="30" show="192.168.1.202" value="c0a801ca"/>
    <field name="" show="Source GeoIP: Unknown" size="4" pos="26" value="c0a801c8"/>
    <field name="" show="Destination GeoIP: Unknown" size="4" pos="30" value="c0a801ca"/>
  </proto>
  <proto name="udp" showname="User Datagram Protocol, Src Port: 8 (8), Dst Port: 8080 (8080)" size="8" pos="34">
    <field name="udp.srcport" showname="Source Port: 8 (8)" size="2" pos="34" show="8" value="0008"/>
    <field name="udp.dstport" showname="Destination Port: 8080 (8080)" size="2" pos="36" show="8080" value="1f90"/>
    <field name="udp.port" showname="Source or Destination Port: 8" hide="yes" size="2" pos="34" show="8" value="0008"/>
    <field name="udp.port" showname="Source or Destination Port: 8080" hide="yes" size="2" pos="36" show="8080" value="1f90"/>
    <field name="udp.length" showname="Length: 1032" size="2" pos="38" show="1032" value="0408"/>
    <field name="udp.checksum_coverage" showname="Checksum coverage: 1032" hide="yes" size="0" pos="38" show="1032"/>
    <field name="udp.checksum" showname="Checksum: 0x07f5 [validation disabled]" size="2" pos="40" show="2037" value="07f5">
      <field name="udp.checksum_good" showname="Good Checksum: False" size="2" pos="40" show="0" value="07f5"/>
      <field name="udp.checksum_bad" showname="Bad Checksum: False" size="2" pos="40" show="0" value="07f5"/>
    </field>
    <field name="udp.stream" showname="Stream index: 6" size="0" pos="42" show="6"/>
  </proto>
  <proto name="rtp" showname="Real-Time Transport Protocol" size="1024" pos="42">
    <field name="rtp.version" showname="10.. .... = Version: RFC 1889 Version (2)" size="1" pos="42" show="2" value="2" unmaskedvalue="aa"/>
    <field name="rtp.padding" showname="..1. .... = Padding: True" size="1" pos="42" show="1" value="1" unmaskedvalue="aa"/>
    <field name="rtp.ext" showname="...0 .... = Extension: False" size="1" pos="42" show="0" value="0" unmaskedvalue="aa"/>
    <field name="rtp.cc" showname=".... 1010 = Contributing source identifiers count: 10" size="1" pos="42" show="10" value="A" unmaskedvalue="aa"/>
    <field name="rtp.marker" showname="1... .... = Marker: True" size="1" pos="43" show="1" value="1" unmaskedvalue="84"/>
    <field name="rtp.p_type" showname="Payload type: ITU-T G.723 (4)" size="1" pos="43" show="4" value="4" unmaskedvalue="84"/>
    <field name="rtp.seq" showname="Sequence number: 787" size="2" pos="46" show="787" value="0313"/>
    <field name="rtp.timestamp" showname="Timestamp: 188880" size="4" pos="48" show="188880" value="0002e1d0"/>
    <field name="rtp.ssrc" showname="Synchronization Source identifier: 0x43f6af95 (1140240277)" size="4" pos="50" show="1140240277" value="43f6af95"/>
    <field name="rtp.csrc.items" showname="Contributing Source identifiers (10 items)" size="40" pos="54" show="" value="">
      <field name="rtp.csrc.item" showname="CSRC item 0: 0xDE93B269" size="4" pos="54" show="3734221417" value="de93b269"/>
      <field name="rtp.csrc.item" showname="CSRC item 1: 0xC9B0D3E2" size="4" pos="58" show="3383808994" value="c9b0d3e2"/>
      <field name="rtp.csrc.item" showname="CSRC item 2: 0xB471ED90" size="4" pos="62" show="3027365264" value="b471ed90"/>
      <field name="rtp.csrc.item" showname="CSRC item 3: 0x1F043D6B" size="4" pos="66" show="520371563" value="1f043d6b"/>
      <field name="rtp.csrc.item" showname="CSRC item 4: 0x99ABC158" size="4" pos="70" show="2578170200" value="99abc158"/>
      <field name="rtp.csrc.item" showname="CSRC item 5: 0x887C25A6" size="4" pos="74" show="2289837478" value="887c25a6"/>
      <field name="rtp.csrc.item" showname="CSRC item 6: 0xF814307E" size="4" pos="78" show="4162072702" value="f814307e"/>
      <field name="rtp.csrc.item" showname="CSRC item 7: 0xB8300F99" size="4" pos="82" show="3090157465" value="b8300f99"/>
      <field name="rtp.csrc.item" showname="CSRC item 8: 0x5042F4C0" size="4" pos="86" show="1346565312" value="5042f4c0"/>
      <field name="rtp.csrc.item" showname="CSRC item 9: 0xAC32D8A9" size="4" pos="90" show="2889013417" value="ac32d8a9"/>
    </field>
    <field name="rtp.payload" showname="Payload: a2f0195894582c607e2b2c0ab15d0b17ae6d7d4a6160fd4e..." size="757" pos="94" show="a2:f0:19:58:94:58:2c:60:7e:2b:2c:0a:b1:5d:0b:17:ae:6d:7d:4a:61:60:fd:4e:9c:a0:62:d1:58:bc:21:68:83:f2:35:0b:18:05:b7:63:a5:80:61:a1:c9:69:93:3a:96:34:c4:c8:37:7a:65:d0:f9:05:83:73:23:05:ab:43:0d:e6:51:18:4c:2f:4b:e5:7a:28:85:0a:45:af:e0:8e:19:6c:af:d8:2d:96:0a:81:78:01:ea:8b:82:0b:45:e0:70:20:e0:7c:ce:40:30:ae:f0:3d:cd:5b:3f:35:12:d6:f2:9a:a4:68:4f:23:78:52:12:c1:08:7c:23:fa:08:2d:15:ce:95:c2:55:ac:28:7b:7f:7a:71:d5:43:cd:83:b4:19:90:61:f0:f4:14:83:b6:fc:dd:da:c7:6d:6b:e8:2b:9f:c1:24:12:80:7c:18:0e:7f:e3:e6:c7:43:ff:c1:2c:75:ee:82:98:b6:03:15:f9:80:60:21:ad:88:a5:80:c8:34:6f:c5:a9:38:39:41:87:a0:c1:02:81:c2:d4:a9:07:21:f7:41:91:33:29:6e:2e:8e:6a:2a:4b:16:e0:2d:e7:bd:ce:f0:89:f5:9e:f2:10:b2:b0:78:08:29:c3:a2:f2:80:93:c8:3c:04:14:a0:c8:8b:c6:41:37:89:81:21:87:a0:f8:7f:fb:b5:26:24:83:81:4e:d8:c8:32:74:40:ee:03:15:fc:17:c9:85:86:2a:a0:63:05:05:a7:06:46:2d:6f:83:08:6b:01:c6:c3:53:06:41:49:f0:78:2f:f9:4b:a0:2d:f0:30:06:ce:02:03:34:37:c0:9c:d0:32:af:83:c1:7f:be:90:1f:1f:ff:b1:56:97:f3:e2:50:2f:85:10:29:6f:67:41:56:8c:81:a7:e8:e5:95:c1:90:7c:18:28:82:ce:2b:10:44:43:ca:b7:94:18:ad:9e:95:08:1f:06:0c:9f:84:a2:bd:87:9b:aa:cd:a0:1e:ad:a4:20:ab:a0:c1:4d:0f:ae:e0:f9:20:31:43:40:c1:93:96:4b:f0:78:2f:f1:7b:e4:25:e0:c1:3c:17:40:60:30:98:18:a3:c1:41:29:f2:f9:a0:b9:f3:ea:5e:df:bb:67:16:23:86:01:22:79:b6:b9:35:50:e1:f9:4e:aa:78:02:1a:61:a2:16:60:14:60:5a:87:93:4a:b4:5b:ea:e5:80:f8:30:85:a9:4b:c3:ff:13:e9:0f:04:ad:30:ad:33:72:9c:ad:8b:07:80:d8:db:4c:4c:26:05:18:38:14:41:7f:87:e1:8b:a5:ae:5d:dd:a7:58:b7:84:0d:a8:d8:42:d1:f1:5f:cc:2c:9f:9a:bf:23:95:05:18:16:30:18:9b:04:8a:c0:7b:cf:be:ab:66:c0:f2:10:b6:78:86:8c:32:19:c8:41:4f:ab:9a:e5:b0:46:5c:18:70:3d:ab:87:cd:f0:50:83:01:08:bd:1d:6b:61:49:c3:2a:76:97:2b:83:54:8c:7e:f1:67:b6:a6:32:b6:12:ba:af:f8:b5:06:13:36:0b:ac:2a:bd:28:a6:c9:1f:49:d3:7d:01:03:7b:f1:e9:b0:e2:69:34:ba:c6:d7:72:c5:cb:96:f8:64:12:61:e0:88:48:46:9a:81:c0:fe:9a:fc:58:64:75:5e:63:6b:31:fe:8f:99:f0:8b:80:9e:27:05:08:e8:ae:a7:69:10:8b:0d:3d:76:ed:48:95:48:14:64:8c:5c:07:41:58:ae:a1:69:b1:a5:c3:64:f7:e1:41:63:b5:c8:8d:e2:92:72:69:52:28:fa:9f:22:7a:93:ce:86:3a:c6:4c:29:36:f2:ff:6c:f2:39:38:e3:2c:e9:d2:f6:ed:a2:b7:85:d0:3d:62:af:5d:79:31:23:c0:2d:6f:81:44:d8:85:19:e5:8e:86:1b:1a:a4:67:52:b6:5b:51:02:50:91:82:ac:3f:03:af:46:a6:66:2e:fb:c0:de:a9:a1" value="a2f0195894582c607e2b2c0ab15d0b17ae6d7d4a6160fd4e9ca062d158bc216883f2350b1805b763a58061a1c969933a9634c4c8377a65d0f90583732305ab430de651184c2f4be57a28850a45afe08e196cafd82d960a817801ea8b820b45e07020e07cce4030aef03dcd5b3f3512d6f29aa4684f23785212c1087c23fa082d15ce95c255ac287b7f7a71d543cd83b4199061f0f41483b6fcdddac76d6be82b9fc12412807c180e7fe3e6c743ffc12c75ee8298b60315f9806021ad88a580c8346fc5a938394187a0c10281c2d4a90721f7419133296e2e8e6a2a4b16e02de7bdcef089f59ef210b2b0780829c3a2f28093c83c0414a0c88bc6413789812187a0f87ffbb5262483814ed8c8327440ee0315fc17c985862aa0630505a706462d6f83086b01c6c353064149f0782ff94ba02df03006ce02033437c09cd032af83c17fbe901f1fffb15697f3e2502f8510296f6741568c81a7e8e595c1907c182882ce2b104443cab79418ad9e95081f060c9f84a2bd879baacda01eada420aba0c14d0faee0f920314340c193964bf0782ff17be425e0c13c174060309818a3c14129f2f9a0b9f3ea5edfbb67162386012279b6b93550e1f94eaa78021a61a2166014605a87934ab45beae580f83085a94bc3ff13e90f04ad30ad33729cad8b0780d8db4c4c2605183814417f87e18ba5ae5ddda758b7840da8d842d1f15fcc2c9f9abf239505181630189b048ac07bcfbeab66c0f210b678868c3219c8414fab9ae5b0465c18703dab87cdf050830108bd1d6b6149c32a76972b83548c7ef167b6a632b612baaff8b50613360bac2abd28a6c91f49d37d01037bf1e9b0e26934bac6d772c5cb96f8641261e08848469a81c0fe9afc5864755e636b31fe8f99f08b809e270508e8aea769108b0d3d76ed48954814648c5c074158aea169b1a5c364f7e14163b5c88de29272695228fa9f227a93ce863ac64c2936f2ff6cf23938e32ce9d2f6eda2b785d03d62af5d793123c02d6f8144d88519e58e861b1aa46752b65b5102509182ac3f03af46a6662efbc0dea9a1"/>
    <field name="rtp.padding.data" showname="Padding data: 41a9c2a2058dfe8c5e8fb38b93a59710d3b18746b4e15275..." size="214" pos="851" show="41:a9:c2:a2:05:8d:fe:8c:5e:8f:b3:8b:93:a5:97:10:d3:b1:87:46:b4:e1:52:75:ed:49:48:78:5b:27:94:bf:ed:51:82:73:5e:4c:59:cd:01:19:5b:42:08:08:02:ec:10:c1:95:08:c2:4a:4f:a6:1f:b5:3f:36:71:11:3a:42:6b:e3:f0:73:62:ce:31:41:f6:a0:d0:10:81:82:04:06:54:ca:ba:3e:2b:48:dd:35:25:84:96:40:a5:84:0d:62:1e:39:f0:85:e4:e2:22:82:57:0d:2a:1e:96:2d:a4:42:ca:c7:c3:9b:d8:46:d5:03:f0:61:bf:c5:31:25:f0:19:7f:8a:52:0b:19:8a:06:0c:22:b0:2e:65:b6:0c:08:7a:a0:10:bf:75:11:6c:0c:9f:c1:80:e0:30:2b:42:0f:72:01:61:6d:83:c0:7e:fe:9a:b6:0c:d3:6a:2f:38:df:86:71:73:e2:10:78:08:1c:40:f3:43:e2:e8:5f:2f:74:2f:6f:6a:85:57:43:7e:0d:45:fe:98:73:b6:86:c1:93:db:4d:4a:d3:b0:e4:0f" value="41a9c2a2058dfe8c5e8fb38b93a59710d3b18746b4e15275ed4948785b2794bfed5182735e4c59cd01195b42080802ec10c19508c24a4fa61fb53f3671113a426be3f07362ce3141f6a0d0108182040654caba3e2b48dd3525849640a5840d621e39f085e4e22282570d2a1e962da442cac7c39bd846d503f061bfc53125f0197f8a520b198a060c22b02e65b60c087aa010bf75116c0c9fc180e0302b420f7201616d83c07efe9ab60cd36a2f38df867173e21078081c40f343e2e85f2f742f6f6a8557437e0d45fe9873b686c193db4d4ad3b0e40f"/>
    <field name="rtp.padding.count" showname="Padding count: 215" size="1" pos="1065" show="215" value="d7"/>
  </proto>
</packet>




<packet>
  <proto name="geninfo" pos="0" showname="General information" size="1066">
    <field name="num" pos="0" show="1295" showname="Number" value="50f" size="1066"/>
    <field name="len" pos="0" show="1066" showname="Frame Length" value="42a" size="1066"/>
    <field name="caplen" pos="0" show="1066" showname="Captured Length" value="42a" size="1066"/>
    <field name="timestamp" pos="0" show="Jan  4, 2013 08:45:22.098523000 MSK" showname="Captured Time" value="1357274722.098523000" size="1066"/>
  </proto>
  <proto name="frame" showname="Frame 1295: 1066 bytes on wire (8528 bits), 1066 bytes captured (8528 bits)" size="1066" pos="0">
    <field name="frame.encap_type" showname="Encapsulation type: Ethernet (1)" size="0" pos="0" show="1"/>
    <field name="frame.time" showname="Arrival Time: Jan  4, 2013 08:45:22.098523000 MSK" size="0" pos="0" show="Jan  4, 2013 08:45:22.098523000 MSK"/>
    <field name="frame.offset_shift" showname="Time shift for this packet: 0.000000000 seconds" size="0" pos="0" show="0.000000000"/>
    <field name="frame.time_epoch" showname="Epoch Time: 1357274722.098523000 seconds" size="0" pos="0" show="1357274722.098523000"/>
    <field name="frame.time_delta" showname="Time delta from previous captured frame: 0.016052000 seconds" size="0" pos="0" show="0.016052000"/>
    <field name="frame.time_delta_displayed" showname="Time delta from previous displayed frame: 0.016052000 seconds" size="0" pos="0" show="0.016052000"/>
    <field name="frame.time_relative" showname="Time since reference or first frame: 26.597705000 seconds" size="0" pos="0" show="26.597705000"/>
    <field name="frame.number" showname="Frame Number: 1295" size="0" pos="0" show="1295"/>
    <field name="frame.len" showname="Frame Length: 1066 bytes (8528 bits)" size="0" pos="0" show="1066"/>
    <field name="frame.cap_len" showname="Capture Length: 1066 bytes (8528 bits)" size="0" pos="0" show="1066"/>
    <field name="frame.marked" showname="Frame is marked: False" size="0" pos="0" show="0"/>
    <field name="frame.ignored" showname="Frame is ignored: False" size="0" pos="0" show="0"/>
    <field name="frame.protocols" showname="Protocols in frame: eth:ethertype:ip:udp:rtp" size="0" pos="0" show="eth:ethertype:ip:udp:rtp"/>
    <field name="frame.coloring_rule.name" showname="Coloring Rule Name: UDP" size="0" pos="0" show="UDP"/>
    <field name="frame.coloring_rule.string" showname="Coloring Rule String: udp" size="0" pos="0" show="udp"/>
  </proto>
  <proto name="eth" showname="Ethernet II, Src: Wiznet_15:ce:e3 (00:08:dc:15:ce:e3), Dst: Dell_e7:b6:7e (bc:30:5b:e7:b6:7e)" size="14" pos="0">
    <field name="eth.dst" showname="Destination: Dell_e7:b6:7e (bc:30:5b:e7:b6:7e)" size="6" pos="0" show="bc:30:5b:e7:b6:7e" value="bc305be7b67e">
      <field name="eth.dst_resolved" showname="Destination (resolved): Dell_e7:b6:7e" hide="yes" size="6" pos="0" show="Dell_e7:b6:7e" value="bc305be7b67e"/>
      <field name="eth.addr" showname="Address: Dell_e7:b6:7e (bc:30:5b:e7:b6:7e)" size="6" pos="0" show="bc:30:5b:e7:b6:7e" value="bc305be7b67e"/>
      <field name="eth.addr_resolved" showname="Address (resolved): Dell_e7:b6:7e" hide="yes" size="6" pos="0" show="Dell_e7:b6:7e" value="bc305be7b67e"/>
      <field name="eth.lg" showname=".... ..0. .... .... .... .... = LG bit: Globally unique address (factory default)" size="3" pos="0" show="0" value="0" unmaskedvalue="bc305b"/>
      <field name="eth.ig" showname=".... ...0 .... .... .... .... = IG bit: Individual address (unicast)" size="3" pos="0" show="0" value="0" unmaskedvalue="bc305b"/>
    </field>
    <field name="eth.src" showname="Source: Wiznet_15:ce:e3 (00:08:dc:15:ce:e3)" size="6" pos="6" show="00:08:dc:15:ce:e3" value="0008dc15cee3">
      <field name="eth.src_resolved" showname="Source (resolved): Wiznet_15:ce:e3" hide="yes" size="6" pos="6" show="Wiznet_15:ce:e3" value="0008dc15cee3"/>
      <field name="eth.addr" showname="Address: Wiznet_15:ce:e3 (00:08:dc:15:ce:e3)" size="6" pos="6" show="00:08:dc:15:ce:e3" value="0008dc15cee3"/>
      <field name="eth.addr_resolved" showname="Address (resolved): Wiznet_15:ce:e3" hide="yes" size="6" pos="6" show="Wiznet_15:ce:e3" value="0008dc15cee3"/>
      <field name="eth.lg" showname=".... ..0. .... .... .... .... = LG bit: Globally unique address (factory default)" size="3" pos="6" show="0" value="0" unmaskedvalue="0008dc"/>
      <field name="eth.ig" showname=".... ...0 .... .... .... .... = IG bit: Individual address (unicast)" size="3" pos="6" show="0" value="0" unmaskedvalue="0008dc"/>
    </field>
    <field name="eth.type" showname="Type: IP (0x0800)" size="2" pos="12" show="2048" value="0800"/>
  </proto>
  <proto name="ip" showname="Internet Protocol Version 4, Src: 192.168.1.200 (192.168.1.200), Dst: 192.168.1.202 (192.168.1.202)" size="20" pos="14">
    <field name="ip.version" showname="Version: 4" size="1" pos="14" show="4" value="45"/>
    <field name="ip.hdr_len" showname="Header Length: 20 bytes" size="1" pos="14" show="20" value="45"/>
    <field name="ip.dsfield" showname="Differentiated Services Field: 0x00 (DSCP 0x00: Default; ECN: 0x00: Not-ECT (Not ECN-Capable Transport))" size="1" pos="15" show="0" value="00">
      <field name="ip.dsfield.dscp" showname="0000 00.. = Differentiated Services Codepoint: Default (0x00)" size="1" pos="15" show="0" value="0" unmaskedvalue="00"/>
      <field name="ip.dsfield.ecn" showname=".... ..00 = Explicit Congestion Notification: Not-ECT (Not ECN-Capable Transport) (0x00)" size="1" pos="15" show="0" value="0" unmaskedvalue="00"/>
    </field>
    <field name="ip.len" showname="Total Length: 1052" size="2" pos="16" show="1052" value="041c"/>
    <field name="ip.id" showname="Identification: 0x04ac (1196)" size="2" pos="18" show="1196" value="04ac"/>
    <field name="ip.flags" showname="Flags: 0x02 (Don&apos;t Fragment)" size="1" pos="20" show="2" value="40">
      <field name="ip.flags.rb" showname="0... .... = Reserved bit: Not set" size="1" pos="20" show="0" value="40"/>
      <field name="ip.flags.df" showname=".1.. .... = Don&apos;t fragment: Set" size="1" pos="20" show="1" value="40"/>
      <field name="ip.flags.mf" showname="..0. .... = More fragments: Not set" size="1" pos="20" show="0" value="40"/>
    </field>
    <field name="ip.frag_offset" showname="Fragment offset: 0" size="2" pos="20" show="0" value="4000"/>
    <field name="ip.ttl" showname="Time to live: 128" size="1" pos="22" show="128" value="80"/>
    <field name="ip.proto" showname="Protocol: UDP (17)" size="1" pos="23" show="17" value="11"/>
    <field name="ip.checksum" showname="Header checksum: 0x6d42 [validation disabled]" size="2" pos="24" show="27970" value="6d42">
      <field name="ip.checksum_good" showname="Good: False" size="2" pos="24" show="0" value="6d42"/>
      <field name="ip.checksum_bad" showname="Bad: False" size="2" pos="24" show="0" value="6d42"/>
    </field>
    <field name="ip.src" showname="Source: 192.168.1.200 (192.168.1.200)" size="4" pos="26" show="192.168.1.200" value="c0a801c8"/>
    <field name="ip.addr" showname="Source or Destination Address: 192.168.1.200 (192.168.1.200)" hide="yes" size="4" pos="26" show="192.168.1.200" value="c0a801c8"/>
    <field name="ip.src_host" showname="Source Host: 192.168.1.200" hide="yes" size="4" pos="26" show="192.168.1.200" value="c0a801c8"/>
    <field name="ip.host" showname="Source or Destination Host: 192.168.1.200" hide="yes" size="4" pos="26" show="192.168.1.200" value="c0a801c8"/>
    <field name="ip.dst" showname="Destination: 192.168.1.202 (192.168.1.202)" size="4" pos="30" show="192.168.1.202" value="c0a801ca"/>
    <field name="ip.addr" showname="Source or Destination Address: 192.168.1.202 (192.168.1.202)" hide="yes" size="4" pos="30" show="192.168.1.202" value="c0a801ca"/>
    <field name="ip.dst_host" showname="Destination Host: 192.168.1.202" hide="yes" size="4" pos="30" show="192.168.1.202" value="c0a801ca"/>
    <field name="ip.host" showname="Source or Destination Host: 192.168.1.202" hide="yes" size="4" pos="30" show="192.168.1.202" value="c0a801ca"/>
    <field name="" show="Source GeoIP: Unknown" size="4" pos="26" value="c0a801c8"/>
    <field name="" show="Destination GeoIP: Unknown" size="4" pos="30" value="c0a801ca"/>
  </proto>
  <proto name="udp" showname="User Datagram Protocol, Src Port: 8 (8), Dst Port: 8080 (8080)" size="8" pos="34">
    <field name="udp.srcport" showname="Source Port: 8 (8)" size="2" pos="34" show="8" value="0008"/>
    <field name="udp.dstport" showname="Destination Port: 8080 (8080)" size="2" pos="36" show="8080" value="1f90"/>
    <field name="udp.port" showname="Source or Destination Port: 8" hide="yes" size="2" pos="34" show="8" value="0008"/>
    <field name="udp.port" showname="Source or Destination Port: 8080" hide="yes" size="2" pos="36" show="8080" value="1f90"/>
    <field name="udp.length" showname="Length: 1032" size="2" pos="38" show="1032" value="0408"/>
    <field name="udp.checksum_coverage" showname="Checksum coverage: 1032" hide="yes" size="0" pos="38" show="1032"/>
    <field name="udp.checksum" showname="Checksum: 0x07f5 [validation disabled]" size="2" pos="40" show="2037" value="07f5">
      <field name="udp.checksum_good" showname="Good Checksum: False" size="2" pos="40" show="0" value="07f5"/>
      <field name="udp.checksum_bad" showname="Bad Checksum: False" size="2" pos="40" show="0" value="07f5"/>
    </field>
    <field name="udp.stream" showname="Stream index: 6" size="0" pos="42" show="6"/>
  </proto>
  <proto name="rtp" showname="Real-Time Transport Protocol" size="1024" pos="42">
    <field name="rtp.version" showname="10.. .... = Version: RFC 1889 Version (2)" size="1" pos="42" show="2" value="2" unmaskedvalue="aa"/>
    <field name="rtp.padding" showname="..1. .... = Padding: True" size="1" pos="42" show="1" value="1" unmaskedvalue="aa"/>
    <field name="rtp.ext" showname="...0 .... = Extension: False" size="1" pos="42" show="0" value="0" unmaskedvalue="aa"/>
    <field name="rtp.cc" showname=".... 1010 = Contributing source identifiers count: 10" size="1" pos="42" show="10" value="A" unmaskedvalue="aa"/>
    <field name="rtp.marker" showname="1... .... = Marker: True" size="1" pos="43" show="1" value="1" unmaskedvalue="84"/>
    <field name="rtp.p_type" showname="Payload type: ITU-T G.723 (4)" size="1" pos="43" show="4" value="4" unmaskedvalue="84"/>
    <field name="rtp.seq" showname="Sequence number: 788" size="2" pos="46" show="788" value="0314"/>
    <field name="rtp.timestamp" showname="Timestamp: 189120" size="4" pos="48" show="189120" value="0002e2c0"/>
    <field name="rtp.ssrc" showname="Synchronization Source identifier: 0x43f6af95 (1140240277)" size="4" pos="50" show="1140240277" value="43f6af95"/>
    <field name="rtp.csrc.items" showname="Contributing Source identifiers (10 items)" size="40" pos="54" show="" value="">
      <field name="rtp.csrc.item" showname="CSRC item 0: 0xDE93B269" size="4" pos="54" show="3734221417" value="de93b269"/>
      <field name="rtp.csrc.item" showname="CSRC item 1: 0xC9B0D3E2" size="4" pos="58" show="3383808994" value="c9b0d3e2"/>
      <field name="rtp.csrc.item" showname="CSRC item 2: 0xB471ED90" size="4" pos="62" show="3027365264" value="b471ed90"/>
      <field name="rtp.csrc.item" showname="CSRC item 3: 0x1F043D6B" size="4" pos="66" show="520371563" value="1f043d6b"/>
      <field name="rtp.csrc.item" showname="CSRC item 4: 0x99ABC158" size="4" pos="70" show="2578170200" value="99abc158"/>
      <field name="rtp.csrc.item" showname="CSRC item 5: 0x887C25A6" size="4" pos="74" show="2289837478" value="887c25a6"/>
      <field name="rtp.csrc.item" showname="CSRC item 6: 0xF814307E" size="4" pos="78" show="4162072702" value="f814307e"/>
      <field name="rtp.csrc.item" showname="CSRC item 7: 0xB8300F99" size="4" pos="82" show="3090157465" value="b8300f99"/>
      <field name="rtp.csrc.item" showname="CSRC item 8: 0x5042F4C0" size="4" pos="86" show="1346565312" value="5042f4c0"/>
      <field name="rtp.csrc.item" showname="CSRC item 9: 0xAC32D8A9" size="4" pos="90" show="2889013417" value="ac32d8a9"/>
    </field>
    <field name="rtp.payload" showname="Payload: a2f0195894582c607e2b2c0ab15d0b17ae6d7d4a6160fd4e..." size="757" pos="94" show="a2:f0:19:58:94:58:2c:60:7e:2b:2c:0a:b1:5d:0b:17:ae:6d:7d:4a:61:60:fd:4e:9c:a0:62:d1:58:bc:21:68:83:f2:35:0b:18:05:b7:63:a5:80:61:a1:c9:69:93:3a:96:34:c4:c8:37:7a:65:d0:f9:05:83:73:23:05:ab:43:0d:e6:51:18:4c:2f:4b:e5:7a:28:85:0a:45:af:e0:8e:19:6c:af:d8:2d:96:0a:81:78:01:ea:8b:82:0b:45:e0:70:20:e0:7c:ce:40:30:ae:f0:3d:cd:5b:3f:35:12:d6:f2:9a:a4:68:4f:23:78:52:12:c1:08:7c:23:fa:08:2d:15:ce:95:c2:55:ac:28:7b:7f:7a:71:d5:43:cd:83:b4:19:90:61:f0:f4:14:83:b6:fc:dd:da:c7:6d:6b:e8:2b:9f:c1:24:12:80:7c:18:0e:7f:e3:e6:c7:43:ff:c1:2c:75:ee:82:98:b6:03:15:f9:80:60:21:ad:88:a5:80:c8:34:6f:c5:a9:38:39:41:87:a0:c1:02:81:c2:d4:a9:07:21:f7:41:91:33:29:6e:2e:8e:6a:2a:4b:16:e0:2d:e7:bd:ce:f0:89:f5:9e:f2:10:b2:b0:78:08:29:c3:a2:f2:80:93:c8:3c:04:14:a0:c8:8b:c6:41:37:89:81:21:87:a0:f8:7f:fb:b5:26:24:83:81:4e:d8:c8:32:74:40:ee:03:15:fc:17:c9:85:86:2a:a0:63:05:05:a7:06:46:2d:6f:83:08:6b:01:c6:c3:53:06:41:49:f0:78:2f:f9:4b:a0:2d:f0:30:06:ce:02:03:34:37:c0:9c:d0:32:af:83:c1:7f:be:90:1f:1f:ff:b1:56:97:f3:e2:50:2f:85:10:29:6f:67:41:56:8c:81:a7:e8:e5:95:c1:90:7c:18:28:82:ce:2b:10:44:43:ca:b7:94:18:ad:9e:95:08:1f:06:0c:9f:84:a2:bd:87:9b:aa:cd:a0:1e:ad:a4:20:ab:a0:c1:4d:0f:ae:e0:f9:20:31:43:40:c1:93:96:4b:f0:78:2f:f1:7b:e4:25:e0:c1:3c:17:40:60:30:98:18:a3:c1:41:29:f2:f9:a0:b9:f3:ea:5e:df:bb:67:16:23:86:01:22:79:b6:b9:35:50:e1:f9:4e:aa:78:02:1a:61:a2:16:60:14:60:5a:87:93:4a:b4:5b:ea:e5:80:f8:30:85:a9:4b:c3:ff:13:e9:0f:04:ad:30:ad:33:72:9c:ad:8b:07:80:d8:db:4c:4c:26:05:18:38:14:41:7f:87:e1:8b:a5:ae:5d:dd:a7:58:b7:84:0d:a8:d8:42:d1:f1:5f:cc:2c:9f:9a:bf:23:95:05:18:16:30:18:9b:04:8a:c0:7b:cf:be:ab:66:c0:f2:10:b6:78:86:8c:32:19:c8:41:4f:ab:9a:e5:b0:46:5c:18:70:3d:ab:87:cd:f0:50:83:01:08:bd:1d:6b:61:49:c3:2a:76:97:2b:83:54:8c:7e:f1:67:b6:a6:32:b6:12:ba:af:f8:b5:06:13:36:0b:ac:2a:bd:28:a6:c9:1f:49:d3:7d:01:03:7b:f1:e9:b0:e2:69:34:ba:c6:d7:72:c5:cb:96:f8:64:12:61:e0:88:48:46:9a:81:c0:fe:9a:fc:58:64:75:5e:63:6b:31:fe:8f:99:f0:8b:80:9e:27:05:08:e8:ae:a7:69:10:8b:0d:3d:76:ed:48:95:48:14:64:8c:5c:07:41:58:ae:a1:69:b1:a5:c3:64:f7:e1:41:63:b5:c8:8d:e2:92:72:69:52:28:fa:9f:22:7a:93:ce:86:3a:c6:4c:29:36:f2:ff:6c:f2:39:38:e3:2c:e9:d2:f6:ed:a2:b7:85:d0:3d:62:af:5d:79:31:23:c0:2d:6f:81:44:d8:85:19:e5:8e:86:1b:1a:a4:67:52:b6:5b:51:02:50:91:82:ac:3f:03:af:46:a6:66:2e:fb:c0:de:a9:a1" value="a2f0195894582c607e2b2c0ab15d0b17ae6d7d4a6160fd4e9ca062d158bc216883f2350b1805b763a58061a1c969933a9634c4c8377a65d0f90583732305ab430de651184c2f4be57a28850a45afe08e196cafd82d960a817801ea8b820b45e07020e07cce4030aef03dcd5b3f3512d6f29aa4684f23785212c1087c23fa082d15ce95c255ac287b7f7a71d543cd83b4199061f0f41483b6fcdddac76d6be82b9fc12412807c180e7fe3e6c743ffc12c75ee8298b60315f9806021ad88a580c8346fc5a938394187a0c10281c2d4a90721f7419133296e2e8e6a2a4b16e02de7bdcef089f59ef210b2b0780829c3a2f28093c83c0414a0c88bc6413789812187a0f87ffbb5262483814ed8c8327440ee0315fc17c985862aa0630505a706462d6f83086b01c6c353064149f0782ff94ba02df03006ce02033437c09cd032af83c17fbe901f1fffb15697f3e2502f8510296f6741568c81a7e8e595c1907c182882ce2b104443cab79418ad9e95081f060c9f84a2bd879baacda01eada420aba0c14d0faee0f920314340c193964bf0782ff17be425e0c13c174060309818a3c14129f2f9a0b9f3ea5edfbb67162386012279b6b93550e1f94eaa78021a61a2166014605a87934ab45beae580f83085a94bc3ff13e90f04ad30ad33729cad8b0780d8db4c4c2605183814417f87e18ba5ae5ddda758b7840da8d842d1f15fcc2c9f9abf239505181630189b048ac07bcfbeab66c0f210b678868c3219c8414fab9ae5b0465c18703dab87cdf050830108bd1d6b6149c32a76972b83548c7ef167b6a632b612baaff8b50613360bac2abd28a6c91f49d37d01037bf1e9b0e26934bac6d772c5cb96f8641261e08848469a81c0fe9afc5864755e636b31fe8f99f08b809e270508e8aea769108b0d3d76ed48954814648c5c074158aea169b1a5c364f7e14163b5c88de29272695228fa9f227a93ce863ac64c2936f2ff6cf23938e32ce9d2f6eda2b785d03d62af5d793123c02d6f8144d88519e58e861b1aa46752b65b5102509182ac3f03af46a6662efbc0dea9a1"/>
    <field name="rtp.padding.data" showname="Padding data: 41a9c2a2058dfe8c5e8fb38b93a59710d3b18746b4e15275..." size="214" pos="851" show="41:a9:c2:a2:05:8d:fe:8c:5e:8f:b3:8b:93:a5:97:10:d3:b1:87:46:b4:e1:52:75:ed:49:48:78:5b:27:94:bf:ed:51:82:73:5e:4c:59:cd:01:19:5b:42:08:08:02:ec:10:c1:95:08:c2:4a:4f:a6:1f:b5:3f:36:71:11:3a:42:6b:e3:f0:73:62:ce:31:41:f6:a0:d0:10:81:82:04:06:54:ca:ba:3e:2b:48:dd:35:25:84:96:40:a5:84:0d:62:1e:39:f0:85:e4:e2:22:82:57:0d:2a:1e:96:2d:a4:42:ca:c7:c3:9b:d8:46:d5:03:f0:61:bf:c5:31:25:f0:19:7f:8a:52:0b:19:8a:06:0c:22:b0:2e:65:b6:0c:08:7a:a0:10:bf:75:11:6c:0c:9f:c1:80:e0:30:2b:42:0f:72:01:61:6d:83:c0:7e:fe:9a:b6:0c:d3:6a:2f:38:df:86:71:73:e2:10:78:08:1c:40:f3:43:e2:e8:5f:2f:74:2f:6f:6a:85:57:43:7e:0d:45:fe:98:73:b6:86:c1:93:db:4d:4a:d3:b0:e4:0f" value="41a9c2a2058dfe8c5e8fb38b93a59710d3b18746b4e15275ed4948785b2794bfed5182735e4c59cd01195b42080802ec10c19508c24a4fa61fb53f3671113a426be3f07362ce3141f6a0d0108182040654caba3e2b48dd3525849640a5840d621e39f085e4e22282570d2a1e962da442cac7c39bd846d503f061bfc53125f0197f8a520b198a060c22b02e65b60c087aa010bf75116c0c9fc180e0302b420f7201616d83c07efe9ab60cd36a2f38df867173e21078081c40f343e2e85f2f742f6f6a8557437e0d45fe9873b686c193db4d4ad3b0e40f"/>
    <field name="rtp.padding.count" showname="Padding count: 215" size="1" pos="1065" show="215" value="d7"/>
  </proto>
</packet>



<packet>
  <proto name="geninfo" pos="0" showname="General information" size="1066">
    <field name="num" pos="0" show="1295" showname="Number" value="50f" size="1066"/>
    <field name="len" pos="0" show="1066" showname="Frame Length" value="42a" size="1066"/>
    <field name="caplen" pos="0" show="1066" showname="Captured Length" value="42a" size="1066"/>
    <field name="timestamp" pos="0" show="Jan  4, 2013 08:45:22.098523000 MSK" showname="Captured Time" value="1357274722.098523000" size="1066"/>
  </proto>
  <proto name="frame" showname="Frame 1295: 1066 bytes on wire (8528 bits), 1066 bytes captured (8528 bits)" size="1066" pos="0">
    <field name="frame.encap_type" showname="Encapsulation type: Ethernet (1)" size="0" pos="0" show="1"/>
    <field name="frame.time" showname="Arrival Time: Jan  4, 2013 08:45:22.098523000 MSK" size="0" pos="0" show="Jan  4, 2013 08:45:22.098523000 MSK"/>
    <field name="frame.offset_shift" showname="Time shift for this packet: 0.000000000 seconds" size="0" pos="0" show="0.000000000"/>
    <field name="frame.time_epoch" showname="Epoch Time: 1357274722.098523000 seconds" size="0" pos="0" show="1357274722.098523000"/>
    <field name="frame.time_delta" showname="Time delta from previous captured frame: 0.016052000 seconds" size="0" pos="0" show="0.016052000"/>
    <field name="frame.time_delta_displayed" showname="Time delta from previous displayed frame: 0.016052000 seconds" size="0" pos="0" show="0.016052000"/>
    <field name="frame.time_relative" showname="Time since reference or first frame: 26.597705000 seconds" size="0" pos="0" show="26.597705000"/>
    <field name="frame.number" showname="Frame Number: 1295" size="0" pos="0" show="1295"/>
    <field name="frame.len" showname="Frame Length: 1066 bytes (8528 bits)" size="0" pos="0" show="1066"/>
    <field name="frame.cap_len" showname="Capture Length: 1066 bytes (8528 bits)" size="0" pos="0" show="1066"/>
    <field name="frame.marked" showname="Frame is marked: False" size="0" pos="0" show="0"/>
    <field name="frame.ignored" showname="Frame is ignored: False" size="0" pos="0" show="0"/>
    <field name="frame.protocols" showname="Protocols in frame: eth:ethertype:ip:udp:rtp" size="0" pos="0" show="eth:ethertype:ip:udp:rtp"/>
    <field name="frame.coloring_rule.name" showname="Coloring Rule Name: UDP" size="0" pos="0" show="UDP"/>
    <field name="frame.coloring_rule.string" showname="Coloring Rule String: udp" size="0" pos="0" show="udp"/>
  </proto>
  <proto name="eth" showname="Ethernet II, Src: Wiznet_15:ce:e3 (00:08:dc:15:ce:e3), Dst: Dell_e7:b6:7e (bc:30:5b:e7:b6:7e)" size="14" pos="0">
    <field name="eth.dst" showname="Destination: Dell_e7:b6:7e (bc:30:5b:e7:b6:7e)" size="6" pos="0" show="bc:30:5b:e7:b6:7e" value="bc305be7b67e">
      <field name="eth.dst_resolved" showname="Destination (resolved): Dell_e7:b6:7e" hide="yes" size="6" pos="0" show="Dell_e7:b6:7e" value="bc305be7b67e"/>
      <field name="eth.addr" showname="Address: Dell_e7:b6:7e (bc:30:5b:e7:b6:7e)" size="6" pos="0" show="bc:30:5b:e7:b6:7e" value="bc305be7b67e"/>
      <field name="eth.addr_resolved" showname="Address (resolved): Dell_e7:b6:7e" hide="yes" size="6" pos="0" show="Dell_e7:b6:7e" value="bc305be7b67e"/>
      <field name="eth.lg" showname=".... ..0. .... .... .... .... = LG bit: Globally unique address (factory default)" size="3" pos="0" show="0" value="0" unmaskedvalue="bc305b"/>
      <field name="eth.ig" showname=".... ...0 .... .... .... .... = IG bit: Individual address (unicast)" size="3" pos="0" show="0" value="0" unmaskedvalue="bc305b"/>
    </field>
    <field name="eth.src" showname="Source: Wiznet_15:ce:e3 (00:08:dc:15:ce:e3)" size="6" pos="6" show="00:08:dc:15:ce:e3" value="0008dc15cee3">
      <field name="eth.src_resolved" showname="Source (resolved): Wiznet_15:ce:e3" hide="yes" size="6" pos="6" show="Wiznet_15:ce:e3" value="0008dc15cee3"/>
      <field name="eth.addr" showname="Address: Wiznet_15:ce:e3 (00:08:dc:15:ce:e3)" size="6" pos="6" show="00:08:dc:15:ce:e3" value="0008dc15cee3"/>
      <field name="eth.addr_resolved" showname="Address (resolved): Wiznet_15:ce:e3" hide="yes" size="6" pos="6" show="Wiznet_15:ce:e3" value="0008dc15cee3"/>
      <field name="eth.lg" showname=".... ..0. .... .... .... .... = LG bit: Globally unique address (factory default)" size="3" pos="6" show="0" value="0" unmaskedvalue="0008dc"/>
      <field name="eth.ig" showname=".... ...0 .... .... .... .... = IG bit: Individual address (unicast)" size="3" pos="6" show="0" value="0" unmaskedvalue="0008dc"/>
    </field>
    <field name="eth.type" showname="Type: IP (0x0800)" size="2" pos="12" show="2048" value="0800"/>
  </proto>
  <proto name="ip" showname="Internet Protocol Version 4, Src: 192.168.1.200 (192.168.1.200), Dst: 192.168.1.202 (192.168.1.202)" size="20" pos="14">
    <field name="ip.version" showname="Version: 4" size="1" pos="14" show="4" value="45"/>
    <field name="ip.hdr_len" showname="Header Length: 20 bytes" size="1" pos="14" show="20" value="45"/>
    <field name="ip.dsfield" showname="Differentiated Services Field: 0x00 (DSCP 0x00: Default; ECN: 0x00: Not-ECT (Not ECN-Capable Transport))" size="1" pos="15" show="0" value="00">
      <field name="ip.dsfield.dscp" showname="0000 00.. = Differentiated Services Codepoint: Default (0x00)" size="1" pos="15" show="0" value="0" unmaskedvalue="00"/>
      <field name="ip.dsfield.ecn" showname=".... ..00 = Explicit Congestion Notification: Not-ECT (Not ECN-Capable Transport) (0x00)" size="1" pos="15" show="0" value="0" unmaskedvalue="00"/>
    </field>
    <field name="ip.len" showname="Total Length: 1052" size="2" pos="16" show="1052" value="041c"/>
    <field name="ip.id" showname="Identification: 0x04ac (1196)" size="2" pos="18" show="1196" value="04ac"/>
    <field name="ip.flags" showname="Flags: 0x02 (Don&apos;t Fragment)" size="1" pos="20" show="2" value="40">
      <field name="ip.flags.rb" showname="0... .... = Reserved bit: Not set" size="1" pos="20" show="0" value="40"/>
      <field name="ip.flags.df" showname=".1.. .... = Don&apos;t fragment: Set" size="1" pos="20" show="1" value="40"/>
      <field name="ip.flags.mf" showname="..0. .... = More fragments: Not set" size="1" pos="20" show="0" value="40"/>
    </field>
    <field name="ip.frag_offset" showname="Fragment offset: 0" size="2" pos="20" show="0" value="4000"/>
    <field name="ip.ttl" showname="Time to live: 128" size="1" pos="22" show="128" value="80"/>
    <field name="ip.proto" showname="Protocol: UDP (17)" size="1" pos="23" show="17" value="11"/>
    <field name="ip.checksum" showname="Header checksum: 0x6d42 [validation disabled]" size="2" pos="24" show="27970" value="6d42">
      <field name="ip.checksum_good" showname="Good: False" size="2" pos="24" show="0" value="6d42"/>
      <field name="ip.checksum_bad" showname="Bad: False" size="2" pos="24" show="0" value="6d42"/>
    </field>
    <field name="ip.src" showname="Source: 192.168.1.200 (192.168.1.200)" size="4" pos="26" show="192.168.1.200" value="c0a801c8"/>
    <field name="ip.addr" showname="Source or Destination Address: 192.168.1.200 (192.168.1.200)" hide="yes" size="4" pos="26" show="192.168.1.200" value="c0a801c8"/>
    <field name="ip.src_host" showname="Source Host: 192.168.1.200" hide="yes" size="4" pos="26" show="192.168.1.200" value="c0a801c8"/>
    <field name="ip.host" showname="Source or Destination Host: 192.168.1.200" hide="yes" size="4" pos="26" show="192.168.1.200" value="c0a801c8"/>
    <field name="ip.dst" showname="Destination: 192.168.1.202 (192.168.1.202)" size="4" pos="30" show="192.168.1.202" value="c0a801ca"/>
    <field name="ip.addr" showname="Source or Destination Address: 192.168.1.202 (192.168.1.202)" hide="yes" size="4" pos="30" show="192.168.1.202" value="c0a801ca"/>
    <field name="ip.dst_host" showname="Destination Host: 192.168.1.202" hide="yes" size="4" pos="30" show="192.168.1.202" value="c0a801ca"/>
    <field name="ip.host" showname="Source or Destination Host: 192.168.1.202" hide="yes" size="4" pos="30" show="192.168.1.202" value="c0a801ca"/>
    <field name="" show="Source GeoIP: Unknown" size="4" pos="26" value="c0a801c8"/>
    <field name="" show="Destination GeoIP: Unknown" size="4" pos="30" value="c0a801ca"/>
  </proto>
  <proto name="udp" showname="User Datagram Protocol, Src Port: 8 (8), Dst Port: 8080 (8080)" size="8" pos="34">
    <field name="udp.srcport" showname="Source Port: 8 (8)" size="2" pos="34" show="8" value="0008"/>
    <field name="udp.dstport" showname="Destination Port: 8080 (8080)" size="2" pos="36" show="8080" value="1f90"/>
    <field name="udp.port" showname="Source or Destination Port: 8" hide="yes" size="2" pos="34" show="8" value="0008"/>
    <field name="udp.port" showname="Source or Destination Port: 8080" hide="yes" size="2" pos="36" show="8080" value="1f90"/>
    <field name="udp.length" showname="Length: 1032" size="2" pos="38" show="1032" value="0408"/>
    <field name="udp.checksum_coverage" showname="Checksum coverage: 1032" hide="yes" size="0" pos="38" show="1032"/>
    <field name="udp.checksum" showname="Checksum: 0x07f5 [validation disabled]" size="2" pos="40" show="2037" value="07f5">
      <field name="udp.checksum_good" showname="Good Checksum: False" size="2" pos="40" show="0" value="07f5"/>
      <field name="udp.checksum_bad" showname="Bad Checksum: False" size="2" pos="40" show="0" value="07f5"/>
    </field>
    <field name="udp.stream" showname="Stream index: 6" size="0" pos="42" show="6"/>
  </proto>
  <proto name="rtp" showname="Real-Time Transport Protocol" size="1024" pos="42">
    <field name="rtp.version" showname="10.. .... = Version: RFC 1889 Version (2)" size="1" pos="42" show="2" value="2" unmaskedvalue="aa"/>
    <field name="rtp.padding" showname="..1. .... = Padding: True" size="1" pos="42" show="1" value="1" unmaskedvalue="aa"/>
    <field name="rtp.ext" showname="...0 .... = Extension: False" size="1" pos="42" show="0" value="0" unmaskedvalue="aa"/>
    <field name="rtp.cc" showname=".... 1010 = Contributing source identifiers count: 10" size="1" pos="42" show="10" value="A" unmaskedvalue="aa"/>
    <field name="rtp.marker" showname="1... .... = Marker: True" size="1" pos="43" show="1" value="1" unmaskedvalue="84"/>
    <field name="rtp.p_type" showname="Payload type: ITU-T G.723 (4)" size="1" pos="43" show="4" value="4" unmaskedvalue="84"/>
    <field name="rtp.seq" showname="Sequence number: 789" size="2" pos="46" show="789" value="0315"/>
    <field name="rtp.timestamp" showname="Timestamp: 189360" size="4" pos="48" show="189360" value="0002e3b0"/>
    <field name="rtp.ssrc" showname="Synchronization Source identifier: 0x43f6af95 (1140240277)" size="4" pos="50" show="1140240277" value="43f6af95"/>
    <field name="rtp.csrc.items" showname="Contributing Source identifiers (10 items)" size="40" pos="54" show="" value="">
      <field name="rtp.csrc.item" showname="CSRC item 0: 0xDE93B269" size="4" pos="54" show="3734221417" value="de93b269"/>
      <field name="rtp.csrc.item" showname="CSRC item 1: 0xC9B0D3E2" size="4" pos="58" show="3383808994" value="c9b0d3e2"/>
      <field name="rtp.csrc.item" showname="CSRC item 2: 0xB471ED90" size="4" pos="62" show="3027365264" value="b471ed90"/>
      <field name="rtp.csrc.item" showname="CSRC item 3: 0x1F043D6B" size="4" pos="66" show="520371563" value="1f043d6b"/>
      <field name="rtp.csrc.item" showname="CSRC item 4: 0x99ABC158" size="4" pos="70" show="2578170200" value="99abc158"/>
      <field name="rtp.csrc.item" showname="CSRC item 5: 0x887C25A6" size="4" pos="74" show="2289837478" value="887c25a6"/>
      <field name="rtp.csrc.item" showname="CSRC item 6: 0xF814307E" size="4" pos="78" show="4162072702" value="f814307e"/>
      <field name="rtp.csrc.item" showname="CSRC item 7: 0xB8300F99" size="4" pos="82" show="3090157465" value="b8300f99"/>
      <field name="rtp.csrc.item" showname="CSRC item 8: 0x5042F4C0" size="4" pos="86" show="1346565312" value="5042f4c0"/>
      <field name="rtp.csrc.item" showname="CSRC item 9: 0xAC32D8A9" size="4" pos="90" show="2889013417" value="ac32d8a9"/>
    </field>
    <field name="rtp.payload" showname="Payload: a2f0195894582c607e2b2c0ab15d0b17ae6d7d4a6160fd4e..." size="757" pos="94" show="a2:f0:19:58:94:58:2c:60:7e:2b:2c:0a:b1:5d:0b:17:ae:6d:7d:4a:61:60:fd:4e:9c:a0:62:d1:58:bc:21:68:83:f2:35:0b:18:05:b7:63:a5:80:61:a1:c9:69:93:3a:96:34:c4:c8:37:7a:65:d0:f9:05:83:73:23:05:ab:43:0d:e6:51:18:4c:2f:4b:e5:7a:28:85:0a:45:af:e0:8e:19:6c:af:d8:2d:96:0a:81:78:01:ea:8b:82:0b:45:e0:70:20:e0:7c:ce:40:30:ae:f0:3d:cd:5b:3f:35:12:d6:f2:9a:a4:68:4f:23:78:52:12:c1:08:7c:23:fa:08:2d:15:ce:95:c2:55:ac:28:7b:7f:7a:71:d5:43:cd:83:b4:19:90:61:f0:f4:14:83:b6:fc:dd:da:c7:6d:6b:e8:2b:9f:c1:24:12:80:7c:18:0e:7f:e3:e6:c7:43:ff:c1:2c:75:ee:82:98:b6:03:15:f9:80:60:21:ad:88:a5:80:c8:34:6f:c5:a9:38:39:41:87:a0:c1:02:81:c2:d4:a9:07:21:f7:41:91:33:29:6e:2e:8e:6a:2a:4b:16:e0:2d:e7:bd:ce:f0:89:f5:9e:f2:10:b2:b0:78:08:29:c3:a2:f2:80:93:c8:3c:04:14:a0:c8:8b:c6:41:37:89:81:21:87:a0:f8:7f:fb:b5:26:24:83:81:4e:d8:c8:32:74:40:ee:03:15:fc:17:c9:85:86:2a:a0:63:05:05:a7:06:46:2d:6f:83:08:6b:01:c6:c3:53:06:41:49:f0:78:2f:f9:4b:a0:2d:f0:30:06:ce:02:03:34:37:c0:9c:d0:32:af:83:c1:7f:be:90:1f:1f:ff:b1:56:97:f3:e2:50:2f:85:10:29:6f:67:41:56:8c:81:a7:e8:e5:95:c1:90:7c:18:28:82:ce:2b:10:44:43:ca:b7:94:18:ad:9e:95:08:1f:06:0c:9f:84:a2:bd:87:9b:aa:cd:a0:1e:ad:a4:20:ab:a0:c1:4d:0f:ae:e0:f9:20:31:43:40:c1:93:96:4b:f0:78:2f:f1:7b:e4:25:e0:c1:3c:17:40:60:30:98:18:a3:c1:41:29:f2:f9:a0:b9:f3:ea:5e:df:bb:67:16:23:86:01:22:79:b6:b9:35:50:e1:f9:4e:aa:78:02:1a:61:a2:16:60:14:60:5a:87:93:4a:b4:5b:ea:e5:80:f8:30:85:a9:4b:c3:ff:13:e9:0f:04:ad:30:ad:33:72:9c:ad:8b:07:80:d8:db:4c:4c:26:05:18:38:14:41:7f:87:e1:8b:a5:ae:5d:dd:a7:58:b7:84:0d:a8:d8:42:d1:f1:5f:cc:2c:9f:9a:bf:23:95:05:18:16:30:18:9b:04:8a:c0:7b:cf:be:ab:66:c0:f2:10:b6:78:86:8c:32:19:c8:41:4f:ab:9a:e5:b0:46:5c:18:70:3d:ab:87:cd:f0:50:83:01:08:bd:1d:6b:61:49:c3:2a:76:97:2b:83:54:8c:7e:f1:67:b6:a6:32:b6:12:ba:af:f8:b5:06:13:36:0b:ac:2a:bd:28:a6:c9:1f:49:d3:7d:01:03:7b:f1:e9:b0:e2:69:34:ba:c6:d7:72:c5:cb:96:f8:64:12:61:e0:88:48:46:9a:81:c0:fe:9a:fc:58:64:75:5e:63:6b:31:fe:8f:99:f0:8b:80:9e:27:05:08:e8:ae:a7:69:10:8b:0d:3d:76:ed:48:95:48:14:64:8c:5c:07:41:58:ae:a1:69:b1:a5:c3:64:f7:e1:41:63:b5:c8:8d:e2:92:72:69:52:28:fa:9f:22:7a:93:ce:86:3a:c6:4c:29:36:f2:ff:6c:f2:39:38:e3:2c:e9:d2:f6:ed:a2:b7:85:d0:3d:62:af:5d:79:31:23:c0:2d:6f:81:44:d8:85:19:e5:8e:86:1b:1a:a4:67:52:b6:5b:51:02:50:91:82:ac:3f:03:af:46:a6:66:2e:fb:c0:de:a9:a1" value="a2f0195894582c607e2b2c0ab15d0b17ae6d7d4a6160fd4e9ca062d158bc216883f2350b1805b763a58061a1c969933a9634c4c8377a65d0f90583732305ab430de651184c2f4be57a28850a45afe08e196cafd82d960a817801ea8b820b45e07020e07cce4030aef03dcd5b3f3512d6f29aa4684f23785212c1087c23fa082d15ce95c255ac287b7f7a71d543cd83b4199061f0f41483b6fcdddac76d6be82b9fc12412807c180e7fe3e6c743ffc12c75ee8298b60315f9806021ad88a580c8346fc5a938394187a0c10281c2d4a90721f7419133296e2e8e6a2a4b16e02de7bdcef089f59ef210b2b0780829c3a2f28093c83c0414a0c88bc6413789812187a0f87ffbb5262483814ed8c8327440ee0315fc17c985862aa0630505a706462d6f83086b01c6c353064149f0782ff94ba02df03006ce02033437c09cd032af83c17fbe901f1fffb15697f3e2502f8510296f6741568c81a7e8e595c1907c182882ce2b104443cab79418ad9e95081f060c9f84a2bd879baacda01eada420aba0c14d0faee0f920314340c193964bf0782ff17be425e0c13c174060309818a3c14129f2f9a0b9f3ea5edfbb67162386012279b6b93550e1f94eaa78021a61a2166014605a87934ab45beae580f83085a94bc3ff13e90f04ad30ad33729cad8b0780d8db4c4c2605183814417f87e18ba5ae5ddda758b7840da8d842d1f15fcc2c9f9abf239505181630189b048ac07bcfbeab66c0f210b678868c3219c8414fab9ae5b0465c18703dab87cdf050830108bd1d6b6149c32a76972b83548c7ef167b6a632b612baaff8b50613360bac2abd28a6c91f49d37d01037bf1e9b0e26934bac6d772c5cb96f8641261e08848469a81c0fe9afc5864755e636b31fe8f99f08b809e270508e8aea769108b0d3d76ed48954814648c5c074158aea169b1a5c364f7e14163b5c88de29272695228fa9f227a93ce863ac64c2936f2ff6cf23938e32ce9d2f6eda2b785d03d62af5d793123c02d6f8144d88519e58e861b1aa46752b65b5102509182ac3f03af46a6662efbc0dea9a1"/>
    <field name="rtp.padding.data" showname="Padding data: 41a9c2a2058dfe8c5e8fb38b93a59710d3b18746b4e15275..." size="214" pos="851" show="41:a9:c2:a2:05:8d:fe:8c:5e:8f:b3:8b:93:a5:97:10:d3:b1:87:46:b4:e1:52:75:ed:49:48:78:5b:27:94:bf:ed:51:82:73:5e:4c:59:cd:01:19:5b:42:08:08:02:ec:10:c1:95:08:c2:4a:4f:a6:1f:b5:3f:36:71:11:3a:42:6b:e3:f0:73:62:ce:31:41:f6:a0:d0:10:81:82:04:06:54:ca:ba:3e:2b:48:dd:35:25:84:96:40:a5:84:0d:62:1e:39:f0:85:e4:e2:22:82:57:0d:2a:1e:96:2d:a4:42:ca:c7:c3:9b:d8:46:d5:03:f0:61:bf:c5:31:25:f0:19:7f:8a:52:0b:19:8a:06:0c:22:b0:2e:65:b6:0c:08:7a:a0:10:bf:75:11:6c:0c:9f:c1:80:e0:30:2b:42:0f:72:01:61:6d:83:c0:7e:fe:9a:b6:0c:d3:6a:2f:38:df:86:71:73:e2:10:78:08:1c:40:f3:43:e2:e8:5f:2f:74:2f:6f:6a:85:57:43:7e:0d:45:fe:98:73:b6:86:c1:93:db:4d:4a:d3:b0:e4:0f" value="41a9c2a2058dfe8c5e8fb38b93a59710d3b18746b4e15275ed4948785b2794bfed5182735e4c59cd01195b42080802ec10c19508c24a4fa61fb53f3671113a426be3f07362ce3141f6a0d0108182040654caba3e2b48dd3525849640a5840d621e39f085e4e22282570d2a1e962da442cac7c39bd846d503f061bfc53125f0197f8a520b198a060c22b02e65b60c087aa010bf75116c0c9fc180e0302b420f7201616d83c07efe9ab60cd36a2f38df867173e21078081c40f343e2e85f2f742f6f6a8557437e0d45fe9873b686c193db4d4ad3b0e40f"/>
    <field name="rtp.padding.count" showname="Padding count: 215" size="1" pos="1065" show="215" value="d7"/>
  </proto>
</packet>




<packet>
  <proto name="geninfo" pos="0" showname="General information" size="1066">
    <field name="num" pos="0" show="1295" showname="Number" value="50f" size="1066"/>
    <field name="len" pos="0" show="1066" showname="Frame Length" value="42a" size="1066"/>
    <field name="caplen" pos="0" show="1066" showname="Captured Length" value="42a" size="1066"/>
    <field name="timestamp" pos="0" show="Jan  4, 2013 08:45:22.098523000 MSK" showname="Captured Time" value="1357274722.098523000" size="1066"/>
  </proto>
  <proto name="frame" showname="Frame 1295: 1066 bytes on wire (8528 bits), 1066 bytes captured (8528 bits)" size="1066" pos="0">
    <field name="frame.encap_type" showname="Encapsulation type: Ethernet (1)" size="0" pos="0" show="1"/>
    <field name="frame.time" showname="Arrival Time: Jan  4, 2013 08:45:22.098523000 MSK" size="0" pos="0" show="Jan  4, 2013 08:45:22.098523000 MSK"/>
    <field name="frame.offset_shift" showname="Time shift for this packet: 0.000000000 seconds" size="0" pos="0" show="0.000000000"/>
    <field name="frame.time_epoch" showname="Epoch Time: 1357274722.098523000 seconds" size="0" pos="0" show="1357274722.098523000"/>
    <field name="frame.time_delta" showname="Time delta from previous captured frame: 0.016052000 seconds" size="0" pos="0" show="0.016052000"/>
    <field name="frame.time_delta_displayed" showname="Time delta from previous displayed frame: 0.016052000 seconds" size="0" pos="0" show="0.016052000"/>
    <field name="frame.time_relative" showname="Time since reference or first frame: 26.597705000 seconds" size="0" pos="0" show="26.597705000"/>
    <field name="frame.number" showname="Frame Number: 1295" size="0" pos="0" show="1295"/>
    <field name="frame.len" showname="Frame Length: 1066 bytes (8528 bits)" size="0" pos="0" show="1066"/>
    <field name="frame.cap_len" showname="Capture Length: 1066 bytes (8528 bits)" size="0" pos="0" show="1066"/>
    <field name="frame.marked" showname="Frame is marked: False" size="0" pos="0" show="0"/>
    <field name="frame.ignored" showname="Frame is ignored: False" size="0" pos="0" show="0"/>
    <field name="frame.protocols" showname="Protocols in frame: eth:ethertype:ip:udp:rtp" size="0" pos="0" show="eth:ethertype:ip:udp:rtp"/>
    <field name="frame.coloring_rule.name" showname="Coloring Rule Name: UDP" size="0" pos="0" show="UDP"/>
    <field name="frame.coloring_rule.string" showname="Coloring Rule String: udp" size="0" pos="0" show="udp"/>
  </proto>
  <proto name="eth" showname="Ethernet II, Src: Wiznet_15:ce:e3 (00:08:dc:15:ce:e3), Dst: Dell_e7:b6:7e (bc:30:5b:e7:b6:7e)" size="14" pos="0">
    <field name="eth.dst" showname="Destination: Dell_e7:b6:7e (bc:30:5b:e7:b6:7e)" size="6" pos="0" show="bc:30:5b:e7:b6:7e" value="bc305be7b67e">
      <field name="eth.dst_resolved" showname="Destination (resolved): Dell_e7:b6:7e" hide="yes" size="6" pos="0" show="Dell_e7:b6:7e" value="bc305be7b67e"/>
      <field name="eth.addr" showname="Address: Dell_e7:b6:7e (bc:30:5b:e7:b6:7e)" size="6" pos="0" show="bc:30:5b:e7:b6:7e" value="bc305be7b67e"/>
      <field name="eth.addr_resolved" showname="Address (resolved): Dell_e7:b6:7e" hide="yes" size="6" pos="0" show="Dell_e7:b6:7e" value="bc305be7b67e"/>
      <field name="eth.lg" showname=".... ..0. .... .... .... .... = LG bit: Globally unique address (factory default)" size="3" pos="0" show="0" value="0" unmaskedvalue="bc305b"/>
      <field name="eth.ig" showname=".... ...0 .... .... .... .... = IG bit: Individual address (unicast)" size="3" pos="0" show="0" value="0" unmaskedvalue="bc305b"/>
    </field>
    <field name="eth.src" showname="Source: Wiznet_15:ce:e3 (00:08:dc:15:ce:e3)" size="6" pos="6" show="00:08:dc:15:ce:e3" value="0008dc15cee3">
      <field name="eth.src_resolved" showname="Source (resolved): Wiznet_15:ce:e3" hide="yes" size="6" pos="6" show="Wiznet_15:ce:e3" value="0008dc15cee3"/>
      <field name="eth.addr" showname="Address: Wiznet_15:ce:e3 (00:08:dc:15:ce:e3)" size="6" pos="6" show="00:08:dc:15:ce:e3" value="0008dc15cee3"/>
      <field name="eth.addr_resolved" showname="Address (resolved): Wiznet_15:ce:e3" hide="yes" size="6" pos="6" show="Wiznet_15:ce:e3" value="0008dc15cee3"/>
      <field name="eth.lg" showname=".... ..0. .... .... .... .... = LG bit: Globally unique address (factory default)" size="3" pos="6" show="0" value="0" unmaskedvalue="0008dc"/>
      <field name="eth.ig" showname=".... ...0 .... .... .... .... = IG bit: Individual address (unicast)" size="3" pos="6" show="0" value="0" unmaskedvalue="0008dc"/>
    </field>
    <field name="eth.type" showname="Type: IP (0x0800)" size="2" pos="12" show="2048" value="0800"/>
  </proto>
  <proto name="ip" showname="Internet Protocol Version 4, Src: 192.168.1.200 (192.168.1.200), Dst: 192.168.1.202 (192.168.1.202)" size="20" pos="14">
    <field name="ip.version" showname="Version: 4" size="1" pos="14" show="4" value="45"/>
    <field name="ip.hdr_len" showname="Header Length: 20 bytes" size="1" pos="14" show="20" value="45"/>
    <field name="ip.dsfield" showname="Differentiated Services Field: 0x00 (DSCP 0x00: Default; ECN: 0x00: Not-ECT (Not ECN-Capable Transport))" size="1" pos="15" show="0" value="00">
      <field name="ip.dsfield.dscp" showname="0000 00.. = Differentiated Services Codepoint: Default (0x00)" size="1" pos="15" show="0" value="0" unmaskedvalue="00"/>
      <field name="ip.dsfield.ecn" showname=".... ..00 = Explicit Congestion Notification: Not-ECT (Not ECN-Capable Transport) (0x00)" size="1" pos="15" show="0" value="0" unmaskedvalue="00"/>
    </field>
    <field name="ip.len" showname="Total Length: 1052" size="2" pos="16" show="1052" value="041c"/>
    <field name="ip.id" showname="Identification: 0x04ac (1196)" size="2" pos="18" show="1196" value="04ac"/>
    <field name="ip.flags" showname="Flags: 0x02 (Don&apos;t Fragment)" size="1" pos="20" show="2" value="40">
      <field name="ip.flags.rb" showname="0... .... = Reserved bit: Not set" size="1" pos="20" show="0" value="40"/>
      <field name="ip.flags.df" showname=".1.. .... = Don&apos;t fragment: Set" size="1" pos="20" show="1" value="40"/>
      <field name="ip.flags.mf" showname="..0. .... = More fragments: Not set" size="1" pos="20" show="0" value="40"/>
    </field>
    <field name="ip.frag_offset" showname="Fragment offset: 0" size="2" pos="20" show="0" value="4000"/>
    <field name="ip.ttl" showname="Time to live: 128" size="1" pos="22" show="128" value="80"/>
    <field name="ip.proto" showname="Protocol: UDP (17)" size="1" pos="23" show="17" value="11"/>
    <field name="ip.checksum" showname="Header checksum: 0x6d42 [validation disabled]" size="2" pos="24" show="27970" value="6d42">
      <field name="ip.checksum_good" showname="Good: False" size="2" pos="24" show="0" value="6d42"/>
      <field name="ip.checksum_bad" showname="Bad: False" size="2" pos="24" show="0" value="6d42"/>
    </field>
    <field name="ip.src" showname="Source: 192.168.1.200 (192.168.1.200)" size="4" pos="26" show="192.168.1.200" value="c0a801c8"/>
    <field name="ip.addr" showname="Source or Destination Address: 192.168.1.200 (192.168.1.200)" hide="yes" size="4" pos="26" show="192.168.1.200" value="c0a801c8"/>
    <field name="ip.src_host" showname="Source Host: 192.168.1.200" hide="yes" size="4" pos="26" show="192.168.1.200" value="c0a801c8"/>
    <field name="ip.host" showname="Source or Destination Host: 192.168.1.200" hide="yes" size="4" pos="26" show="192.168.1.200" value="c0a801c8"/>
    <field name="ip.dst" showname="Destination: 192.168.1.202 (192.168.1.202)" size="4" pos="30" show="192.168.1.202" value="c0a801ca"/>
    <field name="ip.addr" showname="Source or Destination Address: 192.168.1.202 (192.168.1.202)" hide="yes" size="4" pos="30" show="192.168.1.202" value="c0a801ca"/>
    <field name="ip.dst_host" showname="Destination Host: 192.168.1.202" hide="yes" size="4" pos="30" show="192.168.1.202" value="c0a801ca"/>
    <field name="ip.host" showname="Source or Destination Host: 192.168.1.202" hide="yes" size="4" pos="30" show="192.168.1.202" value="c0a801ca"/>
    <field name="" show="Source GeoIP: Unknown" size="4" pos="26" value="c0a801c8"/>
    <field name="" show="Destination GeoIP: Unknown" size="4" pos="30" value="c0a801ca"/>
  </proto>
  <proto name="udp" showname="User Datagram Protocol, Src Port: 8 (8), Dst Port: 8080 (8080)" size="8" pos="34">
    <field name="udp.srcport" showname="Source Port: 8 (8)" size="2" pos="34" show="8" value="0008"/>
    <field name="udp.dstport" showname="Destination Port: 8080 (8080)" size="2" pos="36" show="8080" value="1f90"/>
    <field name="udp.port" showname="Source or Destination Port: 8" hide="yes" size="2" pos="34" show="8" value="0008"/>
    <field name="udp.port" showname="Source or Destination Port: 8080" hide="yes" size="2" pos="36" show="8080" value="1f90"/>
    <field name="udp.length" showname="Length: 1032" size="2" pos="38" show="1032" value="0408"/>
    <field name="udp.checksum_coverage" showname="Checksum coverage: 1032" hide="yes" size="0" pos="38" show="1032"/>
    <field name="udp.checksum" showname="Checksum: 0x07f5 [validation disabled]" size="2" pos="40" show="2037" value="07f5">
      <field name="udp.checksum_good" showname="Good Checksum: False" size="2" pos="40" show="0" value="07f5"/>
      <field name="udp.checksum_bad" showname="Bad Checksum: False" size="2" pos="40" show="0" value="07f5"/>
    </field>
    <field name="udp.stream" showname="Stream index: 6" size="0" pos="42" show="6"/>
  </proto>
  <proto name="rtp" showname="Real-Time Transport Protocol" size="1024" pos="42">
    <field name="rtp.version" showname="10.. .... = Version: RFC 1889 Version (2)" size="1" pos="42" show="2" value="2" unmaskedvalue="aa"/>
    <field name="rtp.padding" showname="..1. .... = Padding: True" size="1" pos="42" show="1" value="1" unmaskedvalue="aa"/>
    <field name="rtp.ext" showname="...0 .... = Extension: False" size="1" pos="42" show="0" value="0" unmaskedvalue="aa"/>
    <field name="rtp.cc" showname=".... 1010 = Contributing source identifiers count: 10" size="1" pos="42" show="10" value="A" unmaskedvalue="aa"/>
    <field name="rtp.marker" showname="1... .... = Marker: True" size="1" pos="43" show="1" value="1" unmaskedvalue="84"/>
    <field name="rtp.p_type" showname="Payload type: ITU-T G.723 (4)" size="1" pos="43" show="4" value="4" unmaskedvalue="84"/>
    <field name="rtp.seq" showname="Sequence number: 790" size="2" pos="46" show="790" value="0316"/>
    <field name="rtp.timestamp" showname="Timestamp: 189600" size="4" pos="48" show="189600" value="0002e4a0"/>
    <field name="rtp.ssrc" showname="Synchronization Source identifier: 0x43f6af95 (1140240277)" size="4" pos="50" show="1140240277" value="43f6af95"/>
    <field name="rtp.csrc.items" showname="Contributing Source identifiers (10 items)" size="40" pos="54" show="" value="">
      <field name="rtp.csrc.item" showname="CSRC item 0: 0xDE93B269" size="4" pos="54" show="3734221417" value="de93b269"/>
      <field name="rtp.csrc.item" showname="CSRC item 1: 0xC9B0D3E2" size="4" pos="58" show="3383808994" value="c9b0d3e2"/>
      <field name="rtp.csrc.item" showname="CSRC item 2: 0xB471ED90" size="4" pos="62" show="3027365264" value="b471ed90"/>
      <field name="rtp.csrc.item" showname="CSRC item 3: 0x1F043D6B" size="4" pos="66" show="520371563" value="1f043d6b"/>
      <field name="rtp.csrc.item" showname="CSRC item 4: 0x99ABC158" size="4" pos="70" show="2578170200" value="99abc158"/>
      <field name="rtp.csrc.item" showname="CSRC item 5: 0x887C25A6" size="4" pos="74" show="2289837478" value="887c25a6"/>
      <field name="rtp.csrc.item" showname="CSRC item 6: 0xF814307E" size="4" pos="78" show="4162072702" value="f814307e"/>
      <field name="rtp.csrc.item" showname="CSRC item 7: 0xB8300F99" size="4" pos="82" show="3090157465" value="b8300f99"/>
      <field name="rtp.csrc.item" showname="CSRC item 8: 0x5042F4C0" size="4" pos="86" show="1346565312" value="5042f4c0"/>
      <field name="rtp.csrc.item" showname="CSRC item 9: 0xAC32D8A9" size="4" pos="90" show="2889013417" value="ac32d8a9"/>
    </field>
    <field name="rtp.payload" showname="Payload: a2f0195894582c607e2b2c0ab15d0b17ae6d7d4a6160fd4e..." size="757" pos="94" show="a2:f0:19:58:94:58:2c:60:7e:2b:2c:0a:b1:5d:0b:17:ae:6d:7d:4a:61:60:fd:4e:9c:a0:62:d1:58:bc:21:68:83:f2:35:0b:18:05:b7:63:a5:80:61:a1:c9:69:93:3a:96:34:c4:c8:37:7a:65:d0:f9:05:83:73:23:05:ab:43:0d:e6:51:18:4c:2f:4b:e5:7a:28:85:0a:45:af:e0:8e:19:6c:af:d8:2d:96:0a:81:78:01:ea:8b:82:0b:45:e0:70:20:e0:7c:ce:40:30:ae:f0:3d:cd:5b:3f:35:12:d6:f2:9a:a4:68:4f:23:78:52:12:c1:08:7c:23:fa:08:2d:15:ce:95:c2:55:ac:28:7b:7f:7a:71:d5:43:cd:83:b4:19:90:61:f0:f4:14:83:b6:fc:dd:da:c7:6d:6b:e8:2b:9f:c1:24:12:80:7c:18:0e:7f:e3:e6:c7:43:ff:c1:2c:75:ee:82:98:b6:03:15:f9:80:60:21:ad:88:a5:80:c8:34:6f:c5:a9:38:39:41:87:a0:c1:02:81:c2:d4:a9:07:21:f7:41:91:33:29:6e:2e:8e:6a:2a:4b:16:e0:2d:e7:bd:ce:f0:89:f5:9e:f2:10:b2:b0:78:08:29:c3:a2:f2:80:93:c8:3c:04:14:a0:c8:8b:c6:41:37:89:81:21:87:a0:f8:7f:fb:b5:26:24:83:81:4e:d8:c8:32:74:40:ee:03:15:fc:17:c9:85:86:2a:a0:63:05:05:a7:06:46:2d:6f:83:08:6b:01:c6:c3:53:06:41:49:f0:78:2f:f9:4b:a0:2d:f0:30:06:ce:02:03:34:37:c0:9c:d0:32:af:83:c1:7f:be:90:1f:1f:ff:b1:56:97:f3:e2:50:2f:85:10:29:6f:67:41:56:8c:81:a7:e8:e5:95:c1:90:7c:18:28:82:ce:2b:10:44:43:ca:b7:94:18:ad:9e:95:08:1f:06:0c:9f:84:a2:bd:87:9b:aa:cd:a0:1e:ad:a4:20:ab:a0:c1:4d:0f:ae:e0:f9:20:31:43:40:c1:93:96:4b:f0:78:2f:f1:7b:e4:25:e0:c1:3c:17:40:60:30:98:18:a3:c1:41:29:f2:f9:a0:b9:f3:ea:5e:df:bb:67:16:23:86:01:22:79:b6:b9:35:50:e1:f9:4e:aa:78:02:1a:61:a2:16:60:14:60:5a:87:93:4a:b4:5b:ea:e5:80:f8:30:85:a9:4b:c3:ff:13:e9:0f:04:ad:30:ad:33:72:9c:ad:8b:07:80:d8:db:4c:4c:26:05:18:38:14:41:7f:87:e1:8b:a5:ae:5d:dd:a7:58:b7:84:0d:a8:d8:42:d1:f1:5f:cc:2c:9f:9a:bf:23:95:05:18:16:30:18:9b:04:8a:c0:7b:cf:be:ab:66:c0:f2:10:b6:78:86:8c:32:19:c8:41:4f:ab:9a:e5:b0:46:5c:18:70:3d:ab:87:cd:f0:50:83:01:08:bd:1d:6b:61:49:c3:2a:76:97:2b:83:54:8c:7e:f1:67:b6:a6:32:b6:12:ba:af:f8:b5:06:13:36:0b:ac:2a:bd:28:a6:c9:1f:49:d3:7d:01:03:7b:f1:e9:b0:e2:69:34:ba:c6:d7:72:c5:cb:96:f8:64:12:61:e0:88:48:46:9a:81:c0:fe:9a:fc:58:64:75:5e:63:6b:31:fe:8f:99:f0:8b:80:9e:27:05:08:e8:ae:a7:69:10:8b:0d:3d:76:ed:48:95:48:14:64:8c:5c:07:41:58:ae:a1:69:b1:a5:c3:64:f7:e1:41:63:b5:c8:8d:e2:92:72:69:52:28:fa:9f:22:7a:93:ce:86:3a:c6:4c:29:36:f2:ff:6c:f2:39:38:e3:2c:e9:d2:f6:ed:a2:b7:85:d0:3d:62:af:5d:79:31:23:c0:2d:6f:81:44:d8:85:19:e5:8e:86:1b:1a:a4:67:52:b6:5b:51:02:50:91:82:ac:3f:03:af:46:a6:66:2e:fb:c0:de:a9:a1" value="a2f0195894582c607e2b2c0ab15d0b17ae6d7d4a6160fd4e9ca062d158bc216883f2350b1805b763a58061a1c969933a9634c4c8377a65d0f90583732305ab430de651184c2f4be57a28850a45afe08e196cafd82d960a817801ea8b820b45e07020e07cce4030aef03dcd5b3f3512d6f29aa4684f23785212c1087c23fa082d15ce95c255ac287b7f7a71d543cd83b4199061f0f41483b6fcdddac76d6be82b9fc12412807c180e7fe3e6c743ffc12c75ee8298b60315f9806021ad88a580c8346fc5a938394187a0c10281c2d4a90721f7419133296e2e8e6a2a4b16e02de7bdcef089f59ef210b2b0780829c3a2f28093c83c0414a0c88bc6413789812187a0f87ffbb5262483814ed8c8327440ee0315fc17c985862aa0630505a706462d6f83086b01c6c353064149f0782ff94ba02df03006ce02033437c09cd032af83c17fbe901f1fffb15697f3e2502f8510296f6741568c81a7e8e595c1907c182882ce2b104443cab79418ad9e95081f060c9f84a2bd879baacda01eada420aba0c14d0faee0f920314340c193964bf0782ff17be425e0c13c174060309818a3c14129f2f9a0b9f3ea5edfbb67162386012279b6b93550e1f94eaa78021a61a2166014605a87934ab45beae580f83085a94bc3ff13e90f04ad30ad33729cad8b0780d8db4c4c2605183814417f87e18ba5ae5ddda758b7840da8d842d1f15fcc2c9f9abf239505181630189b048ac07bcfbeab66c0f210b678868c3219c8414fab9ae5b0465c18703dab87cdf050830108bd1d6b6149c32a76972b83548c7ef167b6a632b612baaff8b50613360bac2abd28a6c91f49d37d01037bf1e9b0e26934bac6d772c5cb96f8641261e08848469a81c0fe9afc5864755e636b31fe8f99f08b809e270508e8aea769108b0d3d76ed48954814648c5c074158aea169b1a5c364f7e14163b5c88de29272695228fa9f227a93ce863ac64c2936f2ff6cf23938e32ce9d2f6eda2b785d03d62af5d793123c02d6f8144d88519e58e861b1aa46752b65b5102509182ac3f03af46a6662efbc0dea9a1"/>
    <field name="rtp.padding.data" showname="Padding data: 41a9c2a2058dfe8c5e8fb38b93a59710d3b18746b4e15275..." size="214" pos="851" show="41:a9:c2:a2:05:8d:fe:8c:5e:8f:b3:8b:93:a5:97:10:d3:b1:87:46:b4:e1:52:75:ed:49:48:78:5b:27:94:bf:ed:51:82:73:5e:4c:59:cd:01:19:5b:42:08:08:02:ec:10:c1:95:08:c2:4a:4f:a6:1f:b5:3f:36:71:11:3a:42:6b:e3:f0:73:62:ce:31:41:f6:a0:d0:10:81:82:04:06:54:ca:ba:3e:2b:48:dd:35:25:84:96:40:a5:84:0d:62:1e:39:f0:85:e4:e2:22:82:57:0d:2a:1e:96:2d:a4:42:ca:c7:c3:9b:d8:46:d5:03:f0:61:bf:c5:31:25:f0:19:7f:8a:52:0b:19:8a:06:0c:22:b0:2e:65:b6:0c:08:7a:a0:10:bf:75:11:6c:0c:9f:c1:80:e0:30:2b:42:0f:72:01:61:6d:83:c0:7e:fe:9a:b6:0c:d3:6a:2f:38:df:86:71:73:e2:10:78:08:1c:40:f3:43:e2:e8:5f:2f:74:2f:6f:6a:85:57:43:7e:0d:45:fe:98:73:b6:86:c1:93:db:4d:4a:d3:b0:e4:0f" value="41a9c2a2058dfe8c5e8fb38b93a59710d3b18746b4e15275ed4948785b2794bfed5182735e4c59cd01195b42080802ec10c19508c24a4fa61fb53f3671113a426be3f07362ce3141f6a0d0108182040654caba3e2b48dd3525849640a5840d621e39f085e4e22282570d2a1e962da442cac7c39bd846d503f061bfc53125f0197f8a520b198a060c22b02e65b60c087aa010bf75116c0c9fc180e0302b420f7201616d83c07efe9ab60cd36a2f38df867173e21078081c40f343e2e85f2f742f6f6a8557437e0d45fe9873b686c193db4d4ad3b0e40f"/>
    <field name="rtp.padding.count" showname="Padding count: 215" size="1" pos="1065" show="215" value="d7"/>
  </proto>
</packet>


</pdml>
