<?xml version="1.0"?>
<?xml-stylesheet type="text/xsl" href="pdml2html.xsl"?>
<!-- You can find pdml2html.xsl in /usr/share/wireshark or at http://anonsvn.wireshark.org/trunk/wireshark/pdml2html.xsl. -->
<pdml version="0" creator="wireshark/1.12.1" time="Wed Jun 22 16:33:44 2016" capture_file="/home/papachappa/test.pcap">
<packet>
  <proto name="geninfo" pos="0" showname="General information" size="57">
    <field name="num" pos="0" show="1" showname="Number" value="1" size="57"/>
    <field name="len" pos="0" show="57" showname="Frame Length" value="39" size="57"/>
    <field name="caplen" pos="0" show="57" showname="Captured Length" value="39" size="57"/>
    <field name="timestamp" pos="0" show="Jun 22, 2016 16:32:25.639551000 MSK" showname="Captured Time" value="1466602345.639551000" size="57"/>
  </proto>
  <proto name="frame" showname="Frame 1: 57 bytes on wire (456 bits), 57 bytes captured (456 bits)" size="57" pos="0">
    <field name="frame.encap_type" showname="Encapsulation type: Linux cooked-mode capture (25)" size="0" pos="0" show="25"/>
    <field name="frame.time" showname="Arrival Time: Jun 22, 2016 16:32:25.639551000 MSK" size="0" pos="0" show="Jun 22, 2016 16:32:25.639551000 MSK"/>
    <field name="frame.offset_shift" showname="Time shift for this packet: 0.000000000 seconds" size="0" pos="0" show="0.000000000"/>
    <field name="frame.time_epoch" showname="Epoch Time: 1466602345.639551000 seconds" size="0" pos="0" show="1466602345.639551000"/>
    <field name="frame.time_delta" showname="Time delta from previous captured frame: 0.000000000 seconds" size="0" pos="0" show="0.000000000"/>
    <field name="frame.time_delta_displayed" showname="Time delta from previous displayed frame: 0.000000000 seconds" size="0" pos="0" show="0.000000000"/>
    <field name="frame.time_relative" showname="Time since reference or first frame: 0.000000000 seconds" size="0" pos="0" show="0.000000000"/>
    <field name="frame.number" showname="Frame Number: 1" size="0" pos="0" show="1"/>
    <field name="frame.len" showname="Frame Length: 57 bytes (456 bits)" size="0" pos="0" show="57"/>
    <field name="frame.cap_len" showname="Capture Length: 57 bytes (456 bits)" size="0" pos="0" show="57"/>
    <field name="frame.marked" showname="Frame is marked: False" size="0" pos="0" show="0"/>
    <field name="frame.ignored" showname="Frame is ignored: False" size="0" pos="0" show="0"/>
    <field name="frame.protocols" showname="Protocols in frame: sll:ethertype:ip:udp:rtp" size="0" pos="0" show="sll:ethertype:ip:udp:rtp"/>
    <field name="frame.coloring_rule.name" showname="Coloring Rule Name: UDP" size="0" pos="0" show="UDP"/>
    <field name="frame.coloring_rule.string" showname="Coloring Rule String: udp" size="0" pos="0" show="udp"/>
  </proto>
  <proto name="sll" showname="Linux cooked capture" size="16" pos="0">
    <field name="sll.pkttype" showname="Packet type: Unicast to us (0)" size="2" pos="0" show="0" value="0000"/>
    <field name="sll.hatype" showname="Link-layer address type: 772" size="2" pos="2" show="772" value="0304"/>
    <field name="sll.halen" showname="Link-layer address length: 6" size="2" pos="4" show="6" value="0006"/>
    <field name="sll.src.eth" showname="Source: 00:00:00_00:00:00 (00:00:00:00:00:00)" size="6" pos="6" show="00:00:00:00:00:00" value="000000000000"/>
    <field name="sll.etype" showname="Protocol: IP (0x0800)" size="2" pos="14" show="2048" value="0800"/>
  </proto>
  <proto name="ip" showname="Internet Protocol Version 4, Src: 192.168.100.6 (192.168.100.6), Dst: 192.168.100.6 (192.168.100.6)" size="20" pos="16">
    <field name="ip.version" showname="Version: 4" size="1" pos="16" show="4" value="45"/>
    <field name="ip.hdr_len" showname="Header Length: 20 bytes" size="1" pos="16" show="20" value="45"/>
    <field name="ip.dsfield" showname="Differentiated Services Field: 0x00 (DSCP 0x00: Default; ECN: 0x00: Not-ECT (Not ECN-Capable Transport))" size="1" pos="17" show="0" value="00">
      <field name="ip.dsfield.dscp" showname="0000 00.. = Differentiated Services Codepoint: Default (0x00)" size="1" pos="17" show="0" value="0" unmaskedvalue="00"/>
      <field name="ip.dsfield.ecn" showname=".... ..00 = Explicit Congestion Notification: Not-ECT (Not ECN-Capable Transport) (0x00)" size="1" pos="17" show="0" value="0" unmaskedvalue="00"/>
    </field>
    <field name="ip.len" showname="Total Length: 41" size="2" pos="18" show="41" value="0029"/>
    <field name="ip.id" showname="Identification: 0x4358 (17240)" size="2" pos="20" show="17240" value="4358"/>
    <field name="ip.flags" showname="Flags: 0x02 (Don&apos;t Fragment)" size="1" pos="22" show="2" value="40">
      <field name="ip.flags.rb" showname="0... .... = Reserved bit: Not set" size="1" pos="22" show="0" value="40"/>
      <field name="ip.flags.df" showname=".1.. .... = Don&apos;t fragment: Set" size="1" pos="22" show="1" value="40"/>
      <field name="ip.flags.mf" showname="..0. .... = More fragments: Not set" size="1" pos="22" show="0" value="40"/>
    </field>
    <field name="ip.frag_offset" showname="Fragment offset: 0" size="2" pos="22" show="0" value="4000"/>
    <field name="ip.ttl" showname="Time to live: 64" size="1" pos="24" show="64" value="40"/>
    <field name="ip.proto" showname="Protocol: UDP (17)" size="1" pos="25" show="17" value="11"/>
    <field name="ip.checksum" showname="Header checksum: 0xae0e [validation disabled]" size="2" pos="26" show="44558" value="ae0e">
      <field name="ip.checksum_good" showname="Good: False" size="2" pos="26" show="0" value="ae0e"/>
      <field name="ip.checksum_bad" showname="Bad: False" size="2" pos="26" show="0" value="ae0e"/>
    </field>
    <field name="ip.src" showname="Source: 192.168.100.6 (192.168.100.6)" size="4" pos="28" show="192.168.100.6" value="c0a86406"/>
    <field name="ip.addr" showname="Source or Destination Address: 192.168.100.6 (192.168.100.6)" hide="yes" size="4" pos="28" show="192.168.100.6" value="c0a86406"/>
    <field name="ip.src_host" showname="Source Host: 192.168.100.6" hide="yes" size="4" pos="28" show="192.168.100.6" value="c0a86406"/>
    <field name="ip.host" showname="Source or Destination Host: 192.168.100.6" hide="yes" size="4" pos="28" show="192.168.100.6" value="c0a86406"/>
    <field name="ip.dst" showname="Destination: 192.168.100.6 (192.168.100.6)" size="4" pos="32" show="192.168.100.6" value="c0a86406"/>
    <field name="ip.addr" showname="Source or Destination Address: 192.168.100.6 (192.168.100.6)" hide="yes" size="4" pos="32" show="192.168.100.6" value="c0a86406"/>
    <field name="ip.dst_host" showname="Destination Host: 192.168.100.6" hide="yes" size="4" pos="32" show="192.168.100.6" value="c0a86406"/>
    <field name="ip.host" showname="Source or Destination Host: 192.168.100.6" hide="yes" size="4" pos="32" show="192.168.100.6" value="c0a86406"/>
    <field name="" show="Source GeoIP: Unknown" size="4" pos="28" value="c0a86406"/>
    <field name="" show="Destination GeoIP: Unknown" size="4" pos="32" value="c0a86406"/>
  </proto>
  <proto name="udp" showname="User Datagram Protocol, Src Port: 26000 (26000), Dst Port: 16600 (16600)" size="8" pos="36">
    <field name="udp.srcport" showname="Source Port: 26000 (26000)" size="2" pos="36" show="26000" value="6590"/>
    <field name="udp.dstport" showname="Destination Port: 16600 (16600)" size="2" pos="38" show="16600" value="40d8"/>
    <field name="udp.port" showname="Source or Destination Port: 26000" hide="yes" size="2" pos="36" show="26000" value="6590"/>
    <field name="udp.port" showname="Source or Destination Port: 16600" hide="yes" size="2" pos="38" show="16600" value="40d8"/>
    <field name="udp.length" showname="Length: 21" size="2" pos="40" show="21" value="0015"/>
    <field name="udp.checksum_coverage" showname="Checksum coverage: 21" hide="yes" size="0" pos="40" show="21"/>
    <field name="udp.checksum" showname="Checksum: 0x4984 [validation disabled]" size="2" pos="42" show="18820" value="4984">
      <field name="udp.checksum_good" showname="Good Checksum: False" size="2" pos="42" show="0" value="4984"/>
      <field name="udp.checksum_bad" showname="Bad Checksum: False" size="2" pos="42" show="0" value="4984"/>
    </field>
    <field name="udp.stream" showname="Stream index: 0" size="0" pos="44" show="0"/>
  </proto>
  <proto name="rtp" showname="Real-Time Transport Protocol" size="13" pos="44">
    <field name="rtp.version" showname="10.. .... = Version: RFC 1889 Version (2)" size="1" pos="44" show="2" value="2" unmaskedvalue="80"/>
    <field name="rtp.padding" showname="..0. .... = Padding: False" size="1" pos="44" show="0" value="0" unmaskedvalue="80"/>
    <field name="rtp.ext" showname="...0 .... = Extension: False" size="1" pos="44" show="0" value="0" unmaskedvalue="80"/>
    <field name="rtp.cc" showname=".... 0000 = Contributing source identifiers count: 0" size="1" pos="44" show="0" value="0" unmaskedvalue="80"/>
    <field name="rtp.marker" showname="0... .... = Marker: False" size="1" pos="45" show="0" value="0" unmaskedvalue="04"/>
    <field name="rtp.p_type" showname="Payload type: ITU-T G.723 (4)" size="1" pos="45" show="4" value="4" unmaskedvalue="04"/>
    <field name="rtp.seq" showname="Sequence number: 781" size="2" pos="46" show="781" value="030d"/>
    <field name="rtp.timestamp" showname="Timestamp: 187440" size="4" pos="48" show="187440" value="0002dc30"/>
    <field name="rtp.ssrc" showname="Synchronization Source identifier: 0x00000003 (3)" size="4" pos="52" show="3" value="00000003"/>
    <field name="rtp.payload" showname="Payload: 0a" size="1" pos="56" show="0a" value="0a"/>
  </proto>
</packet>



<packet>
  <proto name="geninfo" pos="0" showname="General information" size="57">
    <field name="num" pos="0" show="1" showname="Number" value="1" size="57"/>
    <field name="len" pos="0" show="57" showname="Frame Length" value="39" size="57"/>
    <field name="caplen" pos="0" show="57" showname="Captured Length" value="39" size="57"/>
    <field name="timestamp" pos="0" show="Jun 22, 2016 16:32:25.639551000 MSK" showname="Captured Time" value="1466602345.639551000" size="57"/>
  </proto>
  <proto name="frame" showname="Frame 1: 57 bytes on wire (456 bits), 57 bytes captured (456 bits)" size="57" pos="0">
    <field name="frame.encap_type" showname="Encapsulation type: Linux cooked-mode capture (25)" size="0" pos="0" show="25"/>
    <field name="frame.time" showname="Arrival Time: Jun 22, 2016 16:32:25.639551000 MSK" size="0" pos="0" show="Jun 22, 2016 16:32:25.639551000 MSK"/>
    <field name="frame.offset_shift" showname="Time shift for this packet: 0.000000000 seconds" size="0" pos="0" show="0.000000000"/>
    <field name="frame.time_epoch" showname="Epoch Time: 1466602345.639551000 seconds" size="0" pos="0" show="1466602345.639551000"/>
    <field name="frame.time_delta" showname="Time delta from previous captured frame: 0.000000000 seconds" size="0" pos="0" show="0.000000000"/>
    <field name="frame.time_delta_displayed" showname="Time delta from previous displayed frame: 0.000000000 seconds" size="0" pos="0" show="0.000000000"/>
    <field name="frame.time_relative" showname="Time since reference or first frame: 0.000000000 seconds" size="0" pos="0" show="0.000000000"/>
    <field name="frame.number" showname="Frame Number: 1" size="0" pos="0" show="1"/>
    <field name="frame.len" showname="Frame Length: 57 bytes (456 bits)" size="0" pos="0" show="57"/>
    <field name="frame.cap_len" showname="Capture Length: 57 bytes (456 bits)" size="0" pos="0" show="57"/>
    <field name="frame.marked" showname="Frame is marked: False" size="0" pos="0" show="0"/>
    <field name="frame.ignored" showname="Frame is ignored: False" size="0" pos="0" show="0"/>
    <field name="frame.protocols" showname="Protocols in frame: sll:ethertype:ip:udp:rtp" size="0" pos="0" show="sll:ethertype:ip:udp:rtp"/>
    <field name="frame.coloring_rule.name" showname="Coloring Rule Name: UDP" size="0" pos="0" show="UDP"/>
    <field name="frame.coloring_rule.string" showname="Coloring Rule String: udp" size="0" pos="0" show="udp"/>
  </proto>
  <proto name="sll" showname="Linux cooked capture" size="16" pos="0">
    <field name="sll.pkttype" showname="Packet type: Unicast to us (0)" size="2" pos="0" show="0" value="0000"/>
    <field name="sll.hatype" showname="Link-layer address type: 772" size="2" pos="2" show="772" value="0304"/>
    <field name="sll.halen" showname="Link-layer address length: 6" size="2" pos="4" show="6" value="0006"/>
    <field name="sll.src.eth" showname="Source: 00:00:00_00:00:00 (00:00:00:00:00:00)" size="6" pos="6" show="00:00:00:00:00:00" value="000000000000"/>
    <field name="sll.etype" showname="Protocol: IP (0x0800)" size="2" pos="14" show="2048" value="0800"/>
  </proto>
  <proto name="ip" showname="Internet Protocol Version 4, Src: 192.168.100.6 (192.168.100.6), Dst: 192.168.100.6 (192.168.100.6)" size="20" pos="16">
    <field name="ip.version" showname="Version: 4" size="1" pos="16" show="4" value="45"/>
    <field name="ip.hdr_len" showname="Header Length: 20 bytes" size="1" pos="16" show="20" value="45"/>
    <field name="ip.dsfield" showname="Differentiated Services Field: 0x00 (DSCP 0x00: Default; ECN: 0x00: Not-ECT (Not ECN-Capable Transport))" size="1" pos="17" show="0" value="00">
      <field name="ip.dsfield.dscp" showname="0000 00.. = Differentiated Services Codepoint: Default (0x00)" size="1" pos="17" show="0" value="0" unmaskedvalue="00"/>
      <field name="ip.dsfield.ecn" showname=".... ..00 = Explicit Congestion Notification: Not-ECT (Not ECN-Capable Transport) (0x00)" size="1" pos="17" show="0" value="0" unmaskedvalue="00"/>
    </field>
    <field name="ip.len" showname="Total Length: 41" size="2" pos="18" show="41" value="0029"/>
    <field name="ip.id" showname="Identification: 0x4358 (17240)" size="2" pos="20" show="17240" value="4358"/>
    <field name="ip.flags" showname="Flags: 0x02 (Don&apos;t Fragment)" size="1" pos="22" show="2" value="40">
      <field name="ip.flags.rb" showname="0... .... = Reserved bit: Not set" size="1" pos="22" show="0" value="40"/>
      <field name="ip.flags.df" showname=".1.. .... = Don&apos;t fragment: Set" size="1" pos="22" show="1" value="40"/>
      <field name="ip.flags.mf" showname="..0. .... = More fragments: Not set" size="1" pos="22" show="0" value="40"/>
    </field>
    <field name="ip.frag_offset" showname="Fragment offset: 0" size="2" pos="22" show="0" value="4000"/>
    <field name="ip.ttl" showname="Time to live: 64" size="1" pos="24" show="64" value="40"/>
    <field name="ip.proto" showname="Protocol: UDP (17)" size="1" pos="25" show="17" value="11"/>
    <field name="ip.checksum" showname="Header checksum: 0xae0e [validation disabled]" size="2" pos="26" show="44558" value="ae0e">
      <field name="ip.checksum_good" showname="Good: False" size="2" pos="26" show="0" value="ae0e"/>
      <field name="ip.checksum_bad" showname="Bad: False" size="2" pos="26" show="0" value="ae0e"/>
    </field>
    <field name="ip.src" showname="Source: 192.168.100.6 (192.168.100.6)" size="4" pos="28" show="192.168.100.6" value="c0a86406"/>
    <field name="ip.addr" showname="Source or Destination Address: 192.168.100.6 (192.168.100.6)" hide="yes" size="4" pos="28" show="192.168.100.6" value="c0a86406"/>
    <field name="ip.src_host" showname="Source Host: 192.168.100.6" hide="yes" size="4" pos="28" show="192.168.100.6" value="c0a86406"/>
    <field name="ip.host" showname="Source or Destination Host: 192.168.100.6" hide="yes" size="4" pos="28" show="192.168.100.6" value="c0a86406"/>
    <field name="ip.dst" showname="Destination: 192.168.100.6 (192.168.100.6)" size="4" pos="32" show="192.168.100.6" value="c0a86406"/>
    <field name="ip.addr" showname="Source or Destination Address: 192.168.100.6 (192.168.100.6)" hide="yes" size="4" pos="32" show="192.168.100.6" value="c0a86406"/>
    <field name="ip.dst_host" showname="Destination Host: 192.168.100.6" hide="yes" size="4" pos="32" show="192.168.100.6" value="c0a86406"/>
    <field name="ip.host" showname="Source or Destination Host: 192.168.100.6" hide="yes" size="4" pos="32" show="192.168.100.6" value="c0a86406"/>
    <field name="" show="Source GeoIP: Unknown" size="4" pos="28" value="c0a86406"/>
    <field name="" show="Destination GeoIP: Unknown" size="4" pos="32" value="c0a86406"/>
  </proto>
  <proto name="udp" showname="User Datagram Protocol, Src Port: 26000 (26000), Dst Port: 16600 (16600)" size="8" pos="36">
    <field name="udp.srcport" showname="Source Port: 26000 (26000)" size="2" pos="36" show="26000" value="6590"/>
    <field name="udp.dstport" showname="Destination Port: 16600 (16600)" size="2" pos="38" show="16600" value="40d8"/>
    <field name="udp.port" showname="Source or Destination Port: 26000" hide="yes" size="2" pos="36" show="26000" value="6590"/>
    <field name="udp.port" showname="Source or Destination Port: 16600" hide="yes" size="2" pos="38" show="16600" value="40d8"/>
    <field name="udp.length" showname="Length: 21" size="2" pos="40" show="21" value="0015"/>
    <field name="udp.checksum_coverage" showname="Checksum coverage: 21" hide="yes" size="0" pos="40" show="21"/>
    <field name="udp.checksum" showname="Checksum: 0x4984 [validation disabled]" size="2" pos="42" show="18820" value="4984">
      <field name="udp.checksum_good" showname="Good Checksum: False" size="2" pos="42" show="0" value="4984"/>
      <field name="udp.checksum_bad" showname="Bad Checksum: False" size="2" pos="42" show="0" value="4984"/>
    </field>
    <field name="udp.stream" showname="Stream index: 0" size="0" pos="44" show="0"/>
  </proto>
  <proto name="rtp" showname="Real-Time Transport Protocol" size="13" pos="44">
    <field name="rtp.version" showname="10.. .... = Version: RFC 1889 Version (2)" size="1" pos="44" show="2" value="2" unmaskedvalue="80"/>
    <field name="rtp.padding" showname="..0. .... = Padding: False" size="1" pos="44" show="0" value="0" unmaskedvalue="80"/>
    <field name="rtp.ext" showname="...0 .... = Extension: False" size="1" pos="44" show="0" value="0" unmaskedvalue="80"/>
    <field name="rtp.cc" showname=".... 0000 = Contributing source identifiers count: 0" size="1" pos="44" show="0" value="0" unmaskedvalue="80"/>
    <field name="rtp.marker" showname="0... .... = Marker: False" size="1" pos="45" show="0" value="0" unmaskedvalue="04"/>
    <field name="rtp.p_type" showname="Payload type: ITU-T G.723 (4)" size="1" pos="45" show="4" value="4" unmaskedvalue="04"/>
    <field name="rtp.seq" showname="Sequence number: 782" size="2" pos="46" show="782" value="030e"/>
    <field name="rtp.timestamp" showname="Timestamp: 187680" size="4" pos="48" show="187680" value="0002dd20"/>
    <field name="rtp.ssrc" showname="Synchronization Source identifier: 0x00000003 (3)" size="4" pos="52" show="3" value="00000003"/>
    <field name="rtp.payload" showname="Payload: 0a" size="1" pos="56" show="0a" value="0a"/>
  </proto>
</packet>



<packet>
  <proto name="geninfo" pos="0" showname="General information" size="57">
    <field name="num" pos="0" show="1" showname="Number" value="1" size="57"/>
    <field name="len" pos="0" show="57" showname="Frame Length" value="39" size="57"/>
    <field name="caplen" pos="0" show="57" showname="Captured Length" value="39" size="57"/>
    <field name="timestamp" pos="0" show="Jun 22, 2016 16:32:25.639551000 MSK" showname="Captured Time" value="1466602345.639551000" size="57"/>
  </proto>
  <proto name="frame" showname="Frame 1: 57 bytes on wire (456 bits), 57 bytes captured (456 bits)" size="57" pos="0">
    <field name="frame.encap_type" showname="Encapsulation type: Linux cooked-mode capture (25)" size="0" pos="0" show="25"/>
    <field name="frame.time" showname="Arrival Time: Jun 22, 2016 16:32:25.639551000 MSK" size="0" pos="0" show="Jun 22, 2016 16:32:25.639551000 MSK"/>
    <field name="frame.offset_shift" showname="Time shift for this packet: 0.000000000 seconds" size="0" pos="0" show="0.000000000"/>
    <field name="frame.time_epoch" showname="Epoch Time: 1466602345.639551000 seconds" size="0" pos="0" show="1466602345.639551000"/>
    <field name="frame.time_delta" showname="Time delta from previous captured frame: 0.000000000 seconds" size="0" pos="0" show="0.000000000"/>
    <field name="frame.time_delta_displayed" showname="Time delta from previous displayed frame: 0.000000000 seconds" size="0" pos="0" show="0.000000000"/>
    <field name="frame.time_relative" showname="Time since reference or first frame: 0.000000000 seconds" size="0" pos="0" show="0.000000000"/>
    <field name="frame.number" showname="Frame Number: 1" size="0" pos="0" show="1"/>
    <field name="frame.len" showname="Frame Length: 57 bytes (456 bits)" size="0" pos="0" show="57"/>
    <field name="frame.cap_len" showname="Capture Length: 57 bytes (456 bits)" size="0" pos="0" show="57"/>
    <field name="frame.marked" showname="Frame is marked: False" size="0" pos="0" show="0"/>
    <field name="frame.ignored" showname="Frame is ignored: False" size="0" pos="0" show="0"/>
    <field name="frame.protocols" showname="Protocols in frame: sll:ethertype:ip:udp:rtp" size="0" pos="0" show="sll:ethertype:ip:udp:rtp"/>
    <field name="frame.coloring_rule.name" showname="Coloring Rule Name: UDP" size="0" pos="0" show="UDP"/>
    <field name="frame.coloring_rule.string" showname="Coloring Rule String: udp" size="0" pos="0" show="udp"/>
  </proto>
  <proto name="sll" showname="Linux cooked capture" size="16" pos="0">
    <field name="sll.pkttype" showname="Packet type: Unicast to us (0)" size="2" pos="0" show="0" value="0000"/>
    <field name="sll.hatype" showname="Link-layer address type: 772" size="2" pos="2" show="772" value="0304"/>
    <field name="sll.halen" showname="Link-layer address length: 6" size="2" pos="4" show="6" value="0006"/>
    <field name="sll.src.eth" showname="Source: 00:00:00_00:00:00 (00:00:00:00:00:00)" size="6" pos="6" show="00:00:00:00:00:00" value="000000000000"/>
    <field name="sll.etype" showname="Protocol: IP (0x0800)" size="2" pos="14" show="2048" value="0800"/>
  </proto>
  <proto name="ip" showname="Internet Protocol Version 4, Src: 192.168.100.6 (192.168.100.6), Dst: 192.168.100.6 (192.168.100.6)" size="20" pos="16">
    <field name="ip.version" showname="Version: 4" size="1" pos="16" show="4" value="45"/>
    <field name="ip.hdr_len" showname="Header Length: 20 bytes" size="1" pos="16" show="20" value="45"/>
    <field name="ip.dsfield" showname="Differentiated Services Field: 0x00 (DSCP 0x00: Default; ECN: 0x00: Not-ECT (Not ECN-Capable Transport))" size="1" pos="17" show="0" value="00">
      <field name="ip.dsfield.dscp" showname="0000 00.. = Differentiated Services Codepoint: Default (0x00)" size="1" pos="17" show="0" value="0" unmaskedvalue="00"/>
      <field name="ip.dsfield.ecn" showname=".... ..00 = Explicit Congestion Notification: Not-ECT (Not ECN-Capable Transport) (0x00)" size="1" pos="17" show="0" value="0" unmaskedvalue="00"/>
    </field>
    <field name="ip.len" showname="Total Length: 41" size="2" pos="18" show="41" value="0029"/>
    <field name="ip.id" showname="Identification: 0x4358 (17240)" size="2" pos="20" show="17240" value="4358"/>
    <field name="ip.flags" showname="Flags: 0x02 (Don&apos;t Fragment)" size="1" pos="22" show="2" value="40">
      <field name="ip.flags.rb" showname="0... .... = Reserved bit: Not set" size="1" pos="22" show="0" value="40"/>
      <field name="ip.flags.df" showname=".1.. .... = Don&apos;t fragment: Set" size="1" pos="22" show="1" value="40"/>
      <field name="ip.flags.mf" showname="..0. .... = More fragments: Not set" size="1" pos="22" show="0" value="40"/>
    </field>
    <field name="ip.frag_offset" showname="Fragment offset: 0" size="2" pos="22" show="0" value="4000"/>
    <field name="ip.ttl" showname="Time to live: 64" size="1" pos="24" show="64" value="40"/>
    <field name="ip.proto" showname="Protocol: UDP (17)" size="1" pos="25" show="17" value="11"/>
    <field name="ip.checksum" showname="Header checksum: 0xae0e [validation disabled]" size="2" pos="26" show="44558" value="ae0e">
      <field name="ip.checksum_good" showname="Good: False" size="2" pos="26" show="0" value="ae0e"/>
      <field name="ip.checksum_bad" showname="Bad: False" size="2" pos="26" show="0" value="ae0e"/>
    </field>
    <field name="ip.src" showname="Source: 192.168.100.6 (192.168.100.6)" size="4" pos="28" show="192.168.100.6" value="c0a86406"/>
    <field name="ip.addr" showname="Source or Destination Address: 192.168.100.6 (192.168.100.6)" hide="yes" size="4" pos="28" show="192.168.100.6" value="c0a86406"/>
    <field name="ip.src_host" showname="Source Host: 192.168.100.6" hide="yes" size="4" pos="28" show="192.168.100.6" value="c0a86406"/>
    <field name="ip.host" showname="Source or Destination Host: 192.168.100.6" hide="yes" size="4" pos="28" show="192.168.100.6" value="c0a86406"/>
    <field name="ip.dst" showname="Destination: 192.168.100.6 (192.168.100.6)" size="4" pos="32" show="192.168.100.6" value="c0a86406"/>
    <field name="ip.addr" showname="Source or Destination Address: 192.168.100.6 (192.168.100.6)" hide="yes" size="4" pos="32" show="192.168.100.6" value="c0a86406"/>
    <field name="ip.dst_host" showname="Destination Host: 192.168.100.6" hide="yes" size="4" pos="32" show="192.168.100.6" value="c0a86406"/>
    <field name="ip.host" showname="Source or Destination Host: 192.168.100.6" hide="yes" size="4" pos="32" show="192.168.100.6" value="c0a86406"/>
    <field name="" show="Source GeoIP: Unknown" size="4" pos="28" value="c0a86406"/>
    <field name="" show="Destination GeoIP: Unknown" size="4" pos="32" value="c0a86406"/>
  </proto>
  <proto name="udp" showname="User Datagram Protocol, Src Port: 26000 (26000), Dst Port: 16600 (16600)" size="8" pos="36">
    <field name="udp.srcport" showname="Source Port: 26000 (26000)" size="2" pos="36" show="26000" value="6590"/>
    <field name="udp.dstport" showname="Destination Port: 16600 (16600)" size="2" pos="38" show="16600" value="40d8"/>
    <field name="udp.port" showname="Source or Destination Port: 26000" hide="yes" size="2" pos="36" show="26000" value="6590"/>
    <field name="udp.port" showname="Source or Destination Port: 16600" hide="yes" size="2" pos="38" show="16600" value="40d8"/>
    <field name="udp.length" showname="Length: 21" size="2" pos="40" show="21" value="0015"/>
    <field name="udp.checksum_coverage" showname="Checksum coverage: 21" hide="yes" size="0" pos="40" show="21"/>
    <field name="udp.checksum" showname="Checksum: 0x4984 [validation disabled]" size="2" pos="42" show="18820" value="4984">
      <field name="udp.checksum_good" showname="Good Checksum: False" size="2" pos="42" show="0" value="4984"/>
      <field name="udp.checksum_bad" showname="Bad Checksum: False" size="2" pos="42" show="0" value="4984"/>
    </field>
    <field name="udp.stream" showname="Stream index: 0" size="0" pos="44" show="0"/>
  </proto>
  <proto name="rtp" showname="Real-Time Transport Protocol" size="13" pos="44">
    <field name="rtp.version" showname="10.. .... = Version: RFC 1889 Version (2)" size="1" pos="44" show="2" value="2" unmaskedvalue="80"/>
    <field name="rtp.padding" showname="..0. .... = Padding: False" size="1" pos="44" show="0" value="0" unmaskedvalue="80"/>
    <field name="rtp.ext" showname="...0 .... = Extension: False" size="1" pos="44" show="0" value="0" unmaskedvalue="80"/>
    <field name="rtp.cc" showname=".... 0000 = Contributing source identifiers count: 0" size="1" pos="44" show="0" value="0" unmaskedvalue="80"/>
    <field name="rtp.marker" showname="0... .... = Marker: False" size="1" pos="45" show="0" value="0" unmaskedvalue="04"/>
    <field name="rtp.p_type" showname="Payload type: ITU-T G.723 (4)" size="1" pos="45" show="4" value="4" unmaskedvalue="04"/>
    <field name="rtp.seq" showname="Sequence number: 783" size="2" pos="46" show="783" value="030f"/>
    <field name="rtp.timestamp" showname="Timestamp: 187920" size="4" pos="48" show="187920" value="0002de10"/>
    <field name="rtp.ssrc" showname="Synchronization Source identifier: 0x00000003 (3)" size="4" pos="52" show="3" value="00000003"/>
    <field name="rtp.payload" showname="Payload: 0a" size="1" pos="56" show="0a" value="0a"/>
  </proto>
</packet>




<packet>
  <proto name="geninfo" pos="0" showname="General information" size="57">
    <field name="num" pos="0" show="1" showname="Number" value="1" size="57"/>
    <field name="len" pos="0" show="57" showname="Frame Length" value="39" size="57"/>
    <field name="caplen" pos="0" show="57" showname="Captured Length" value="39" size="57"/>
    <field name="timestamp" pos="0" show="Jun 22, 2016 16:32:25.639551000 MSK" showname="Captured Time" value="1466602345.639551000" size="57"/>
  </proto>
  <proto name="frame" showname="Frame 1: 57 bytes on wire (456 bits), 57 bytes captured (456 bits)" size="57" pos="0">
    <field name="frame.encap_type" showname="Encapsulation type: Linux cooked-mode capture (25)" size="0" pos="0" show="25"/>
    <field name="frame.time" showname="Arrival Time: Jun 22, 2016 16:32:25.639551000 MSK" size="0" pos="0" show="Jun 22, 2016 16:32:25.639551000 MSK"/>
    <field name="frame.offset_shift" showname="Time shift for this packet: 0.000000000 seconds" size="0" pos="0" show="0.000000000"/>
    <field name="frame.time_epoch" showname="Epoch Time: 1466602345.639551000 seconds" size="0" pos="0" show="1466602345.639551000"/>
    <field name="frame.time_delta" showname="Time delta from previous captured frame: 0.000000000 seconds" size="0" pos="0" show="0.000000000"/>
    <field name="frame.time_delta_displayed" showname="Time delta from previous displayed frame: 0.000000000 seconds" size="0" pos="0" show="0.000000000"/>
    <field name="frame.time_relative" showname="Time since reference or first frame: 0.000000000 seconds" size="0" pos="0" show="0.000000000"/>
    <field name="frame.number" showname="Frame Number: 1" size="0" pos="0" show="1"/>
    <field name="frame.len" showname="Frame Length: 57 bytes (456 bits)" size="0" pos="0" show="57"/>
    <field name="frame.cap_len" showname="Capture Length: 57 bytes (456 bits)" size="0" pos="0" show="57"/>
    <field name="frame.marked" showname="Frame is marked: False" size="0" pos="0" show="0"/>
    <field name="frame.ignored" showname="Frame is ignored: False" size="0" pos="0" show="0"/>
    <field name="frame.protocols" showname="Protocols in frame: sll:ethertype:ip:udp:rtp" size="0" pos="0" show="sll:ethertype:ip:udp:rtp"/>
    <field name="frame.coloring_rule.name" showname="Coloring Rule Name: UDP" size="0" pos="0" show="UDP"/>
    <field name="frame.coloring_rule.string" showname="Coloring Rule String: udp" size="0" pos="0" show="udp"/>
  </proto>
  <proto name="sll" showname="Linux cooked capture" size="16" pos="0">
    <field name="sll.pkttype" showname="Packet type: Unicast to us (0)" size="2" pos="0" show="0" value="0000"/>
    <field name="sll.hatype" showname="Link-layer address type: 772" size="2" pos="2" show="772" value="0304"/>
    <field name="sll.halen" showname="Link-layer address length: 6" size="2" pos="4" show="6" value="0006"/>
    <field name="sll.src.eth" showname="Source: 00:00:00_00:00:00 (00:00:00:00:00:00)" size="6" pos="6" show="00:00:00:00:00:00" value="000000000000"/>
    <field name="sll.etype" showname="Protocol: IP (0x0800)" size="2" pos="14" show="2048" value="0800"/>
  </proto>
  <proto name="ip" showname="Internet Protocol Version 4, Src: 192.168.100.6 (192.168.100.6), Dst: 192.168.100.6 (192.168.100.6)" size="20" pos="16">
    <field name="ip.version" showname="Version: 4" size="1" pos="16" show="4" value="45"/>
    <field name="ip.hdr_len" showname="Header Length: 20 bytes" size="1" pos="16" show="20" value="45"/>
    <field name="ip.dsfield" showname="Differentiated Services Field: 0x00 (DSCP 0x00: Default; ECN: 0x00: Not-ECT (Not ECN-Capable Transport))" size="1" pos="17" show="0" value="00">
      <field name="ip.dsfield.dscp" showname="0000 00.. = Differentiated Services Codepoint: Default (0x00)" size="1" pos="17" show="0" value="0" unmaskedvalue="00"/>
      <field name="ip.dsfield.ecn" showname=".... ..00 = Explicit Congestion Notification: Not-ECT (Not ECN-Capable Transport) (0x00)" size="1" pos="17" show="0" value="0" unmaskedvalue="00"/>
    </field>
    <field name="ip.len" showname="Total Length: 41" size="2" pos="18" show="41" value="0029"/>
    <field name="ip.id" showname="Identification: 0x4358 (17240)" size="2" pos="20" show="17240" value="4358"/>
    <field name="ip.flags" showname="Flags: 0x02 (Don&apos;t Fragment)" size="1" pos="22" show="2" value="40">
      <field name="ip.flags.rb" showname="0... .... = Reserved bit: Not set" size="1" pos="22" show="0" value="40"/>
      <field name="ip.flags.df" showname=".1.. .... = Don&apos;t fragment: Set" size="1" pos="22" show="1" value="40"/>
      <field name="ip.flags.mf" showname="..0. .... = More fragments: Not set" size="1" pos="22" show="0" value="40"/>
    </field>
    <field name="ip.frag_offset" showname="Fragment offset: 0" size="2" pos="22" show="0" value="4000"/>
    <field name="ip.ttl" showname="Time to live: 64" size="1" pos="24" show="64" value="40"/>
    <field name="ip.proto" showname="Protocol: UDP (17)" size="1" pos="25" show="17" value="11"/>
    <field name="ip.checksum" showname="Header checksum: 0xae0e [validation disabled]" size="2" pos="26" show="44558" value="ae0e">
      <field name="ip.checksum_good" showname="Good: False" size="2" pos="26" show="0" value="ae0e"/>
      <field name="ip.checksum_bad" showname="Bad: False" size="2" pos="26" show="0" value="ae0e"/>
    </field>
    <field name="ip.src" showname="Source: 192.168.100.6 (192.168.100.6)" size="4" pos="28" show="192.168.100.6" value="c0a86406"/>
    <field name="ip.addr" showname="Source or Destination Address: 192.168.100.6 (192.168.100.6)" hide="yes" size="4" pos="28" show="192.168.100.6" value="c0a86406"/>
    <field name="ip.src_host" showname="Source Host: 192.168.100.6" hide="yes" size="4" pos="28" show="192.168.100.6" value="c0a86406"/>
    <field name="ip.host" showname="Source or Destination Host: 192.168.100.6" hide="yes" size="4" pos="28" show="192.168.100.6" value="c0a86406"/>
    <field name="ip.dst" showname="Destination: 192.168.100.6 (192.168.100.6)" size="4" pos="32" show="192.168.100.6" value="c0a86406"/>
    <field name="ip.addr" showname="Source or Destination Address: 192.168.100.6 (192.168.100.6)" hide="yes" size="4" pos="32" show="192.168.100.6" value="c0a86406"/>
    <field name="ip.dst_host" showname="Destination Host: 192.168.100.6" hide="yes" size="4" pos="32" show="192.168.100.6" value="c0a86406"/>
    <field name="ip.host" showname="Source or Destination Host: 192.168.100.6" hide="yes" size="4" pos="32" show="192.168.100.6" value="c0a86406"/>
    <field name="" show="Source GeoIP: Unknown" size="4" pos="28" value="c0a86406"/>
    <field name="" show="Destination GeoIP: Unknown" size="4" pos="32" value="c0a86406"/>
  </proto>
  <proto name="udp" showname="User Datagram Protocol, Src Port: 26000 (26000), Dst Port: 16600 (16600)" size="8" pos="36">
    <field name="udp.srcport" showname="Source Port: 26000 (26000)" size="2" pos="36" show="26000" value="6590"/>
    <field name="udp.dstport" showname="Destination Port: 16600 (16600)" size="2" pos="38" show="16600" value="40d8"/>
    <field name="udp.port" showname="Source or Destination Port: 26000" hide="yes" size="2" pos="36" show="26000" value="6590"/>
    <field name="udp.port" showname="Source or Destination Port: 16600" hide="yes" size="2" pos="38" show="16600" value="40d8"/>
    <field name="udp.length" showname="Length: 21" size="2" pos="40" show="21" value="0015"/>
    <field name="udp.checksum_coverage" showname="Checksum coverage: 21" hide="yes" size="0" pos="40" show="21"/>
    <field name="udp.checksum" showname="Checksum: 0x4984 [validation disabled]" size="2" pos="42" show="18820" value="4984">
      <field name="udp.checksum_good" showname="Good Checksum: False" size="2" pos="42" show="0" value="4984"/>
      <field name="udp.checksum_bad" showname="Bad Checksum: False" size="2" pos="42" show="0" value="4984"/>
    </field>
    <field name="udp.stream" showname="Stream index: 0" size="0" pos="44" show="0"/>
  </proto>
  <proto name="rtp" showname="Real-Time Transport Protocol" size="13" pos="44">
    <field name="rtp.version" showname="10.. .... = Version: RFC 1889 Version (2)" size="1" pos="44" show="2" value="2" unmaskedvalue="80"/>
    <field name="rtp.padding" showname="..0. .... = Padding: False" size="1" pos="44" show="0" value="0" unmaskedvalue="80"/>
    <field name="rtp.ext" showname="...0 .... = Extension: False" size="1" pos="44" show="0" value="0" unmaskedvalue="80"/>
    <field name="rtp.cc" showname=".... 0000 = Contributing source identifiers count: 0" size="1" pos="44" show="0" value="0" unmaskedvalue="80"/>
    <field name="rtp.marker" showname="0... .... = Marker: False" size="1" pos="45" show="0" value="0" unmaskedvalue="04"/>
    <field name="rtp.p_type" showname="Payload type: ITU-T G.723 (4)" size="1" pos="45" show="4" value="4" unmaskedvalue="04"/>
    <field name="rtp.seq" showname="Sequence number: 784" size="2" pos="46" show="784" value="0310"/>
    <field name="rtp.timestamp" showname="Timestamp: 188160" size="4" pos="48" show="188160" value="0002df00"/>
    <field name="rtp.ssrc" showname="Synchronization Source identifier: 0x00000003 (3)" size="4" pos="52" show="3" value="00000003"/>
    <field name="rtp.payload" showname="Payload: 0a" size="1" pos="56" show="0a" value="0a"/>
  </proto>
</packet>



<packet>
  <proto name="geninfo" pos="0" showname="General information" size="57">
    <field name="num" pos="0" show="1" showname="Number" value="1" size="57"/>
    <field name="len" pos="0" show="57" showname="Frame Length" value="39" size="57"/>
    <field name="caplen" pos="0" show="57" showname="Captured Length" value="39" size="57"/>
    <field name="timestamp" pos="0" show="Jun 22, 2016 16:32:25.639551000 MSK" showname="Captured Time" value="1466602345.639551000" size="57"/>
  </proto>
  <proto name="frame" showname="Frame 1: 57 bytes on wire (456 bits), 57 bytes captured (456 bits)" size="57" pos="0">
    <field name="frame.encap_type" showname="Encapsulation type: Linux cooked-mode capture (25)" size="0" pos="0" show="25"/>
    <field name="frame.time" showname="Arrival Time: Jun 22, 2016 16:32:25.639551000 MSK" size="0" pos="0" show="Jun 22, 2016 16:32:25.639551000 MSK"/>
    <field name="frame.offset_shift" showname="Time shift for this packet: 0.000000000 seconds" size="0" pos="0" show="0.000000000"/>
    <field name="frame.time_epoch" showname="Epoch Time: 1466602345.639551000 seconds" size="0" pos="0" show="1466602345.639551000"/>
    <field name="frame.time_delta" showname="Time delta from previous captured frame: 0.000000000 seconds" size="0" pos="0" show="0.000000000"/>
    <field name="frame.time_delta_displayed" showname="Time delta from previous displayed frame: 0.000000000 seconds" size="0" pos="0" show="0.000000000"/>
    <field name="frame.time_relative" showname="Time since reference or first frame: 0.000000000 seconds" size="0" pos="0" show="0.000000000"/>
    <field name="frame.number" showname="Frame Number: 1" size="0" pos="0" show="1"/>
    <field name="frame.len" showname="Frame Length: 57 bytes (456 bits)" size="0" pos="0" show="57"/>
    <field name="frame.cap_len" showname="Capture Length: 57 bytes (456 bits)" size="0" pos="0" show="57"/>
    <field name="frame.marked" showname="Frame is marked: False" size="0" pos="0" show="0"/>
    <field name="frame.ignored" showname="Frame is ignored: False" size="0" pos="0" show="0"/>
    <field name="frame.protocols" showname="Protocols in frame: sll:ethertype:ip:udp:rtp" size="0" pos="0" show="sll:ethertype:ip:udp:rtp"/>
    <field name="frame.coloring_rule.name" showname="Coloring Rule Name: UDP" size="0" pos="0" show="UDP"/>
    <field name="frame.coloring_rule.string" showname="Coloring Rule String: udp" size="0" pos="0" show="udp"/>
  </proto>
  <proto name="sll" showname="Linux cooked capture" size="16" pos="0">
    <field name="sll.pkttype" showname="Packet type: Unicast to us (0)" size="2" pos="0" show="0" value="0000"/>
    <field name="sll.hatype" showname="Link-layer address type: 772" size="2" pos="2" show="772" value="0304"/>
    <field name="sll.halen" showname="Link-layer address length: 6" size="2" pos="4" show="6" value="0006"/>
    <field name="sll.src.eth" showname="Source: 00:00:00_00:00:00 (00:00:00:00:00:00)" size="6" pos="6" show="00:00:00:00:00:00" value="000000000000"/>
    <field name="sll.etype" showname="Protocol: IP (0x0800)" size="2" pos="14" show="2048" value="0800"/>
  </proto>
  <proto name="ip" showname="Internet Protocol Version 4, Src: 192.168.100.6 (192.168.100.6), Dst: 192.168.100.6 (192.168.100.6)" size="20" pos="16">
    <field name="ip.version" showname="Version: 4" size="1" pos="16" show="4" value="45"/>
    <field name="ip.hdr_len" showname="Header Length: 20 bytes" size="1" pos="16" show="20" value="45"/>
    <field name="ip.dsfield" showname="Differentiated Services Field: 0x00 (DSCP 0x00: Default; ECN: 0x00: Not-ECT (Not ECN-Capable Transport))" size="1" pos="17" show="0" value="00">
      <field name="ip.dsfield.dscp" showname="0000 00.. = Differentiated Services Codepoint: Default (0x00)" size="1" pos="17" show="0" value="0" unmaskedvalue="00"/>
      <field name="ip.dsfield.ecn" showname=".... ..00 = Explicit Congestion Notification: Not-ECT (Not ECN-Capable Transport) (0x00)" size="1" pos="17" show="0" value="0" unmaskedvalue="00"/>
    </field>
    <field name="ip.len" showname="Total Length: 41" size="2" pos="18" show="41" value="0029"/>
    <field name="ip.id" showname="Identification: 0x4358 (17240)" size="2" pos="20" show="17240" value="4358"/>
    <field name="ip.flags" showname="Flags: 0x02 (Don&apos;t Fragment)" size="1" pos="22" show="2" value="40">
      <field name="ip.flags.rb" showname="0... .... = Reserved bit: Not set" size="1" pos="22" show="0" value="40"/>
      <field name="ip.flags.df" showname=".1.. .... = Don&apos;t fragment: Set" size="1" pos="22" show="1" value="40"/>
      <field name="ip.flags.mf" showname="..0. .... = More fragments: Not set" size="1" pos="22" show="0" value="40"/>
    </field>
    <field name="ip.frag_offset" showname="Fragment offset: 0" size="2" pos="22" show="0" value="4000"/>
    <field name="ip.ttl" showname="Time to live: 64" size="1" pos="24" show="64" value="40"/>
    <field name="ip.proto" showname="Protocol: UDP (17)" size="1" pos="25" show="17" value="11"/>
    <field name="ip.checksum" showname="Header checksum: 0xae0e [validation disabled]" size="2" pos="26" show="44558" value="ae0e">
      <field name="ip.checksum_good" showname="Good: False" size="2" pos="26" show="0" value="ae0e"/>
      <field name="ip.checksum_bad" showname="Bad: False" size="2" pos="26" show="0" value="ae0e"/>
    </field>
    <field name="ip.src" showname="Source: 192.168.100.6 (192.168.100.6)" size="4" pos="28" show="192.168.100.6" value="c0a86406"/>
    <field name="ip.addr" showname="Source or Destination Address: 192.168.100.6 (192.168.100.6)" hide="yes" size="4" pos="28" show="192.168.100.6" value="c0a86406"/>
    <field name="ip.src_host" showname="Source Host: 192.168.100.6" hide="yes" size="4" pos="28" show="192.168.100.6" value="c0a86406"/>
    <field name="ip.host" showname="Source or Destination Host: 192.168.100.6" hide="yes" size="4" pos="28" show="192.168.100.6" value="c0a86406"/>
    <field name="ip.dst" showname="Destination: 192.168.100.6 (192.168.100.6)" size="4" pos="32" show="192.168.100.6" value="c0a86406"/>
    <field name="ip.addr" showname="Source or Destination Address: 192.168.100.6 (192.168.100.6)" hide="yes" size="4" pos="32" show="192.168.100.6" value="c0a86406"/>
    <field name="ip.dst_host" showname="Destination Host: 192.168.100.6" hide="yes" size="4" pos="32" show="192.168.100.6" value="c0a86406"/>
    <field name="ip.host" showname="Source or Destination Host: 192.168.100.6" hide="yes" size="4" pos="32" show="192.168.100.6" value="c0a86406"/>
    <field name="" show="Source GeoIP: Unknown" size="4" pos="28" value="c0a86406"/>
    <field name="" show="Destination GeoIP: Unknown" size="4" pos="32" value="c0a86406"/>
  </proto>
  <proto name="udp" showname="User Datagram Protocol, Src Port: 26000 (26000), Dst Port: 16600 (16600)" size="8" pos="36">
    <field name="udp.srcport" showname="Source Port: 26000 (26000)" size="2" pos="36" show="26000" value="6590"/>
    <field name="udp.dstport" showname="Destination Port: 16600 (16600)" size="2" pos="38" show="16600" value="40d8"/>
    <field name="udp.port" showname="Source or Destination Port: 26000" hide="yes" size="2" pos="36" show="26000" value="6590"/>
    <field name="udp.port" showname="Source or Destination Port: 16600" hide="yes" size="2" pos="38" show="16600" value="40d8"/>
    <field name="udp.length" showname="Length: 21" size="2" pos="40" show="21" value="0015"/>
    <field name="udp.checksum_coverage" showname="Checksum coverage: 21" hide="yes" size="0" pos="40" show="21"/>
    <field name="udp.checksum" showname="Checksum: 0x4984 [validation disabled]" size="2" pos="42" show="18820" value="4984">
      <field name="udp.checksum_good" showname="Good Checksum: False" size="2" pos="42" show="0" value="4984"/>
      <field name="udp.checksum_bad" showname="Bad Checksum: False" size="2" pos="42" show="0" value="4984"/>
    </field>
    <field name="udp.stream" showname="Stream index: 0" size="0" pos="44" show="0"/>
  </proto>
  <proto name="rtp" showname="Real-Time Transport Protocol" size="13" pos="44">
    <field name="rtp.version" showname="10.. .... = Version: RFC 1889 Version (2)" size="1" pos="44" show="2" value="2" unmaskedvalue="80"/>
    <field name="rtp.padding" showname="..0. .... = Padding: False" size="1" pos="44" show="0" value="0" unmaskedvalue="80"/>
    <field name="rtp.ext" showname="...0 .... = Extension: False" size="1" pos="44" show="0" value="0" unmaskedvalue="80"/>
    <field name="rtp.cc" showname=".... 0000 = Contributing source identifiers count: 0" size="1" pos="44" show="0" value="0" unmaskedvalue="80"/>
    <field name="rtp.marker" showname="0... .... = Marker: False" size="1" pos="45" show="0" value="0" unmaskedvalue="04"/>
    <field name="rtp.p_type" showname="Payload type: ITU-T G.723 (4)" size="1" pos="45" show="4" value="4" unmaskedvalue="04"/>
    <field name="rtp.seq" showname="Sequence number: 785" size="2" pos="46" show="785" value="0311"/>
    <field name="rtp.timestamp" showname="Timestamp: 188400" size="4" pos="48" show="188400" value="0002dff0"/>
    <field name="rtp.ssrc" showname="Synchronization Source identifier: 0x00000003 (3)" size="4" pos="52" show="3" value="00000003"/>
    <field name="rtp.payload" showname="Payload: 0a" size="1" pos="56" show="0a" value="0a"/>
  </proto>
</packet>



<packet>
  <proto name="geninfo" pos="0" showname="General information" size="57">
    <field name="num" pos="0" show="1" showname="Number" value="1" size="57"/>
    <field name="len" pos="0" show="57" showname="Frame Length" value="39" size="57"/>
    <field name="caplen" pos="0" show="57" showname="Captured Length" value="39" size="57"/>
    <field name="timestamp" pos="0" show="Jun 22, 2016 16:32:25.639551000 MSK" showname="Captured Time" value="1466602345.639551000" size="57"/>
  </proto>
  <proto name="frame" showname="Frame 1: 57 bytes on wire (456 bits), 57 bytes captured (456 bits)" size="57" pos="0">
    <field name="frame.encap_type" showname="Encapsulation type: Linux cooked-mode capture (25)" size="0" pos="0" show="25"/>
    <field name="frame.time" showname="Arrival Time: Jun 22, 2016 16:32:25.639551000 MSK" size="0" pos="0" show="Jun 22, 2016 16:32:25.639551000 MSK"/>
    <field name="frame.offset_shift" showname="Time shift for this packet: 0.000000000 seconds" size="0" pos="0" show="0.000000000"/>
    <field name="frame.time_epoch" showname="Epoch Time: 1466602345.639551000 seconds" size="0" pos="0" show="1466602345.639551000"/>
    <field name="frame.time_delta" showname="Time delta from previous captured frame: 0.000000000 seconds" size="0" pos="0" show="0.000000000"/>
    <field name="frame.time_delta_displayed" showname="Time delta from previous displayed frame: 0.000000000 seconds" size="0" pos="0" show="0.000000000"/>
    <field name="frame.time_relative" showname="Time since reference or first frame: 0.000000000 seconds" size="0" pos="0" show="0.000000000"/>
    <field name="frame.number" showname="Frame Number: 1" size="0" pos="0" show="1"/>
    <field name="frame.len" showname="Frame Length: 57 bytes (456 bits)" size="0" pos="0" show="57"/>
    <field name="frame.cap_len" showname="Capture Length: 57 bytes (456 bits)" size="0" pos="0" show="57"/>
    <field name="frame.marked" showname="Frame is marked: False" size="0" pos="0" show="0"/>
    <field name="frame.ignored" showname="Frame is ignored: False" size="0" pos="0" show="0"/>
    <field name="frame.protocols" showname="Protocols in frame: sll:ethertype:ip:udp:rtp" size="0" pos="0" show="sll:ethertype:ip:udp:rtp"/>
    <field name="frame.coloring_rule.name" showname="Coloring Rule Name: UDP" size="0" pos="0" show="UDP"/>
    <field name="frame.coloring_rule.string" showname="Coloring Rule String: udp" size="0" pos="0" show="udp"/>
  </proto>
  <proto name="sll" showname="Linux cooked capture" size="16" pos="0">
    <field name="sll.pkttype" showname="Packet type: Unicast to us (0)" size="2" pos="0" show="0" value="0000"/>
    <field name="sll.hatype" showname="Link-layer address type: 772" size="2" pos="2" show="772" value="0304"/>
    <field name="sll.halen" showname="Link-layer address length: 6" size="2" pos="4" show="6" value="0006"/>
    <field name="sll.src.eth" showname="Source: 00:00:00_00:00:00 (00:00:00:00:00:00)" size="6" pos="6" show="00:00:00:00:00:00" value="000000000000"/>
    <field name="sll.etype" showname="Protocol: IP (0x0800)" size="2" pos="14" show="2048" value="0800"/>
  </proto>
  <proto name="ip" showname="Internet Protocol Version 4, Src: 192.168.100.6 (192.168.100.6), Dst: 192.168.100.6 (192.168.100.6)" size="20" pos="16">
    <field name="ip.version" showname="Version: 4" size="1" pos="16" show="4" value="45"/>
    <field name="ip.hdr_len" showname="Header Length: 20 bytes" size="1" pos="16" show="20" value="45"/>
    <field name="ip.dsfield" showname="Differentiated Services Field: 0x00 (DSCP 0x00: Default; ECN: 0x00: Not-ECT (Not ECN-Capable Transport))" size="1" pos="17" show="0" value="00">
      <field name="ip.dsfield.dscp" showname="0000 00.. = Differentiated Services Codepoint: Default (0x00)" size="1" pos="17" show="0" value="0" unmaskedvalue="00"/>
      <field name="ip.dsfield.ecn" showname=".... ..00 = Explicit Congestion Notification: Not-ECT (Not ECN-Capable Transport) (0x00)" size="1" pos="17" show="0" value="0" unmaskedvalue="00"/>
    </field>
    <field name="ip.len" showname="Total Length: 41" size="2" pos="18" show="41" value="0029"/>
    <field name="ip.id" showname="Identification: 0x4358 (17240)" size="2" pos="20" show="17240" value="4358"/>
    <field name="ip.flags" showname="Flags: 0x02 (Don&apos;t Fragment)" size="1" pos="22" show="2" value="40">
      <field name="ip.flags.rb" showname="0... .... = Reserved bit: Not set" size="1" pos="22" show="0" value="40"/>
      <field name="ip.flags.df" showname=".1.. .... = Don&apos;t fragment: Set" size="1" pos="22" show="1" value="40"/>
      <field name="ip.flags.mf" showname="..0. .... = More fragments: Not set" size="1" pos="22" show="0" value="40"/>
    </field>
    <field name="ip.frag_offset" showname="Fragment offset: 0" size="2" pos="22" show="0" value="4000"/>
    <field name="ip.ttl" showname="Time to live: 64" size="1" pos="24" show="64" value="40"/>
    <field name="ip.proto" showname="Protocol: UDP (17)" size="1" pos="25" show="17" value="11"/>
    <field name="ip.checksum" showname="Header checksum: 0xae0e [validation disabled]" size="2" pos="26" show="44558" value="ae0e">
      <field name="ip.checksum_good" showname="Good: False" size="2" pos="26" show="0" value="ae0e"/>
      <field name="ip.checksum_bad" showname="Bad: False" size="2" pos="26" show="0" value="ae0e"/>
    </field>
    <field name="ip.src" showname="Source: 192.168.100.6 (192.168.100.6)" size="4" pos="28" show="192.168.100.6" value="c0a86406"/>
    <field name="ip.addr" showname="Source or Destination Address: 192.168.100.6 (192.168.100.6)" hide="yes" size="4" pos="28" show="192.168.100.6" value="c0a86406"/>
    <field name="ip.src_host" showname="Source Host: 192.168.100.6" hide="yes" size="4" pos="28" show="192.168.100.6" value="c0a86406"/>
    <field name="ip.host" showname="Source or Destination Host: 192.168.100.6" hide="yes" size="4" pos="28" show="192.168.100.6" value="c0a86406"/>
    <field name="ip.dst" showname="Destination: 192.168.100.6 (192.168.100.6)" size="4" pos="32" show="192.168.100.6" value="c0a86406"/>
    <field name="ip.addr" showname="Source or Destination Address: 192.168.100.6 (192.168.100.6)" hide="yes" size="4" pos="32" show="192.168.100.6" value="c0a86406"/>
    <field name="ip.dst_host" showname="Destination Host: 192.168.100.6" hide="yes" size="4" pos="32" show="192.168.100.6" value="c0a86406"/>
    <field name="ip.host" showname="Source or Destination Host: 192.168.100.6" hide="yes" size="4" pos="32" show="192.168.100.6" value="c0a86406"/>
    <field name="" show="Source GeoIP: Unknown" size="4" pos="28" value="c0a86406"/>
    <field name="" show="Destination GeoIP: Unknown" size="4" pos="32" value="c0a86406"/>
  </proto>
  <proto name="udp" showname="User Datagram Protocol, Src Port: 26000 (26000), Dst Port: 16600 (16600)" size="8" pos="36">
    <field name="udp.srcport" showname="Source Port: 26000 (26000)" size="2" pos="36" show="26000" value="6590"/>
    <field name="udp.dstport" showname="Destination Port: 16600 (16600)" size="2" pos="38" show="16600" value="40d8"/>
    <field name="udp.port" showname="Source or Destination Port: 26000" hide="yes" size="2" pos="36" show="26000" value="6590"/>
    <field name="udp.port" showname="Source or Destination Port: 16600" hide="yes" size="2" pos="38" show="16600" value="40d8"/>
    <field name="udp.length" showname="Length: 21" size="2" pos="40" show="21" value="0015"/>
    <field name="udp.checksum_coverage" showname="Checksum coverage: 21" hide="yes" size="0" pos="40" show="21"/>
    <field name="udp.checksum" showname="Checksum: 0x4984 [validation disabled]" size="2" pos="42" show="18820" value="4984">
      <field name="udp.checksum_good" showname="Good Checksum: False" size="2" pos="42" show="0" value="4984"/>
      <field name="udp.checksum_bad" showname="Bad Checksum: False" size="2" pos="42" show="0" value="4984"/>
    </field>
    <field name="udp.stream" showname="Stream index: 0" size="0" pos="44" show="0"/>
  </proto>
  <proto name="rtp" showname="Real-Time Transport Protocol" size="13" pos="44">
    <field name="rtp.version" showname="10.. .... = Version: RFC 1889 Version (2)" size="1" pos="44" show="2" value="2" unmaskedvalue="80"/>
    <field name="rtp.padding" showname="..0. .... = Padding: False" size="1" pos="44" show="0" value="0" unmaskedvalue="80"/>
    <field name="rtp.ext" showname="...0 .... = Extension: False" size="1" pos="44" show="0" value="0" unmaskedvalue="80"/>
    <field name="rtp.cc" showname=".... 0000 = Contributing source identifiers count: 0" size="1" pos="44" show="0" value="0" unmaskedvalue="80"/>
    <field name="rtp.marker" showname="0... .... = Marker: False" size="1" pos="45" show="0" value="0" unmaskedvalue="04"/>
    <field name="rtp.p_type" showname="Payload type: ITU-T G.723 (4)" size="1" pos="45" show="4" value="4" unmaskedvalue="04"/>
    <field name="rtp.seq" showname="Sequence number: 786" size="2" pos="46" show="786" value="0312"/>
    <field name="rtp.timestamp" showname="Timestamp: 188640" size="4" pos="48" show="188640" value="0002e0e0"/>
    <field name="rtp.ssrc" showname="Synchronization Source identifier: 0x00000003 (3)" size="4" pos="52" show="3" value="00000003"/>
    <field name="rtp.payload" showname="Payload: 0a" size="1" pos="56" show="0a" value="0a"/>
  </proto>
</packet>



<packet>
  <proto name="geninfo" pos="0" showname="General information" size="57">
    <field name="num" pos="0" show="1" showname="Number" value="1" size="57"/>
    <field name="len" pos="0" show="57" showname="Frame Length" value="39" size="57"/>
    <field name="caplen" pos="0" show="57" showname="Captured Length" value="39" size="57"/>
    <field name="timestamp" pos="0" show="Jun 22, 2016 16:32:25.639551000 MSK" showname="Captured Time" value="1466602345.639551000" size="57"/>
  </proto>
  <proto name="frame" showname="Frame 1: 57 bytes on wire (456 bits), 57 bytes captured (456 bits)" size="57" pos="0">
    <field name="frame.encap_type" showname="Encapsulation type: Linux cooked-mode capture (25)" size="0" pos="0" show="25"/>
    <field name="frame.time" showname="Arrival Time: Jun 22, 2016 16:32:25.639551000 MSK" size="0" pos="0" show="Jun 22, 2016 16:32:25.639551000 MSK"/>
    <field name="frame.offset_shift" showname="Time shift for this packet: 0.000000000 seconds" size="0" pos="0" show="0.000000000"/>
    <field name="frame.time_epoch" showname="Epoch Time: 1466602345.639551000 seconds" size="0" pos="0" show="1466602345.639551000"/>
    <field name="frame.time_delta" showname="Time delta from previous captured frame: 0.000000000 seconds" size="0" pos="0" show="0.000000000"/>
    <field name="frame.time_delta_displayed" showname="Time delta from previous displayed frame: 0.000000000 seconds" size="0" pos="0" show="0.000000000"/>
    <field name="frame.time_relative" showname="Time since reference or first frame: 0.000000000 seconds" size="0" pos="0" show="0.000000000"/>
    <field name="frame.number" showname="Frame Number: 1" size="0" pos="0" show="1"/>
    <field name="frame.len" showname="Frame Length: 57 bytes (456 bits)" size="0" pos="0" show="57"/>
    <field name="frame.cap_len" showname="Capture Length: 57 bytes (456 bits)" size="0" pos="0" show="57"/>
    <field name="frame.marked" showname="Frame is marked: False" size="0" pos="0" show="0"/>
    <field name="frame.ignored" showname="Frame is ignored: False" size="0" pos="0" show="0"/>
    <field name="frame.protocols" showname="Protocols in frame: sll:ethertype:ip:udp:rtp" size="0" pos="0" show="sll:ethertype:ip:udp:rtp"/>
    <field name="frame.coloring_rule.name" showname="Coloring Rule Name: UDP" size="0" pos="0" show="UDP"/>
    <field name="frame.coloring_rule.string" showname="Coloring Rule String: udp" size="0" pos="0" show="udp"/>
  </proto>
  <proto name="sll" showname="Linux cooked capture" size="16" pos="0">
    <field name="sll.pkttype" showname="Packet type: Unicast to us (0)" size="2" pos="0" show="0" value="0000"/>
    <field name="sll.hatype" showname="Link-layer address type: 772" size="2" pos="2" show="772" value="0304"/>
    <field name="sll.halen" showname="Link-layer address length: 6" size="2" pos="4" show="6" value="0006"/>
    <field name="sll.src.eth" showname="Source: 00:00:00_00:00:00 (00:00:00:00:00:00)" size="6" pos="6" show="00:00:00:00:00:00" value="000000000000"/>
    <field name="sll.etype" showname="Protocol: IP (0x0800)" size="2" pos="14" show="2048" value="0800"/>
  </proto>
  <proto name="ip" showname="Internet Protocol Version 4, Src: 192.168.100.6 (192.168.100.6), Dst: 192.168.100.6 (192.168.100.6)" size="20" pos="16">
    <field name="ip.version" showname="Version: 4" size="1" pos="16" show="4" value="45"/>
    <field name="ip.hdr_len" showname="Header Length: 20 bytes" size="1" pos="16" show="20" value="45"/>
    <field name="ip.dsfield" showname="Differentiated Services Field: 0x00 (DSCP 0x00: Default; ECN: 0x00: Not-ECT (Not ECN-Capable Transport))" size="1" pos="17" show="0" value="00">
      <field name="ip.dsfield.dscp" showname="0000 00.. = Differentiated Services Codepoint: Default (0x00)" size="1" pos="17" show="0" value="0" unmaskedvalue="00"/>
      <field name="ip.dsfield.ecn" showname=".... ..00 = Explicit Congestion Notification: Not-ECT (Not ECN-Capable Transport) (0x00)" size="1" pos="17" show="0" value="0" unmaskedvalue="00"/>
    </field>
    <field name="ip.len" showname="Total Length: 41" size="2" pos="18" show="41" value="0029"/>
    <field name="ip.id" showname="Identification: 0x4358 (17240)" size="2" pos="20" show="17240" value="4358"/>
    <field name="ip.flags" showname="Flags: 0x02 (Don&apos;t Fragment)" size="1" pos="22" show="2" value="40">
      <field name="ip.flags.rb" showname="0... .... = Reserved bit: Not set" size="1" pos="22" show="0" value="40"/>
      <field name="ip.flags.df" showname=".1.. .... = Don&apos;t fragment: Set" size="1" pos="22" show="1" value="40"/>
      <field name="ip.flags.mf" showname="..0. .... = More fragments: Not set" size="1" pos="22" show="0" value="40"/>
    </field>
    <field name="ip.frag_offset" showname="Fragment offset: 0" size="2" pos="22" show="0" value="4000"/>
    <field name="ip.ttl" showname="Time to live: 64" size="1" pos="24" show="64" value="40"/>
    <field name="ip.proto" showname="Protocol: UDP (17)" size="1" pos="25" show="17" value="11"/>
    <field name="ip.checksum" showname="Header checksum: 0xae0e [validation disabled]" size="2" pos="26" show="44558" value="ae0e">
      <field name="ip.checksum_good" showname="Good: False" size="2" pos="26" show="0" value="ae0e"/>
      <field name="ip.checksum_bad" showname="Bad: False" size="2" pos="26" show="0" value="ae0e"/>
    </field>
    <field name="ip.src" showname="Source: 192.168.100.6 (192.168.100.6)" size="4" pos="28" show="192.168.100.6" value="c0a86406"/>
    <field name="ip.addr" showname="Source or Destination Address: 192.168.100.6 (192.168.100.6)" hide="yes" size="4" pos="28" show="192.168.100.6" value="c0a86406"/>
    <field name="ip.src_host" showname="Source Host: 192.168.100.6" hide="yes" size="4" pos="28" show="192.168.100.6" value="c0a86406"/>
    <field name="ip.host" showname="Source or Destination Host: 192.168.100.6" hide="yes" size="4" pos="28" show="192.168.100.6" value="c0a86406"/>
    <field name="ip.dst" showname="Destination: 192.168.100.6 (192.168.100.6)" size="4" pos="32" show="192.168.100.6" value="c0a86406"/>
    <field name="ip.addr" showname="Source or Destination Address: 192.168.100.6 (192.168.100.6)" hide="yes" size="4" pos="32" show="192.168.100.6" value="c0a86406"/>
    <field name="ip.dst_host" showname="Destination Host: 192.168.100.6" hide="yes" size="4" pos="32" show="192.168.100.6" value="c0a86406"/>
    <field name="ip.host" showname="Source or Destination Host: 192.168.100.6" hide="yes" size="4" pos="32" show="192.168.100.6" value="c0a86406"/>
    <field name="" show="Source GeoIP: Unknown" size="4" pos="28" value="c0a86406"/>
    <field name="" show="Destination GeoIP: Unknown" size="4" pos="32" value="c0a86406"/>
  </proto>
  <proto name="udp" showname="User Datagram Protocol, Src Port: 26000 (26000), Dst Port: 16600 (16600)" size="8" pos="36">
    <field name="udp.srcport" showname="Source Port: 26000 (26000)" size="2" pos="36" show="26000" value="6590"/>
    <field name="udp.dstport" showname="Destination Port: 16600 (16600)" size="2" pos="38" show="16600" value="40d8"/>
    <field name="udp.port" showname="Source or Destination Port: 26000" hide="yes" size="2" pos="36" show="26000" value="6590"/>
    <field name="udp.port" showname="Source or Destination Port: 16600" hide="yes" size="2" pos="38" show="16600" value="40d8"/>
    <field name="udp.length" showname="Length: 21" size="2" pos="40" show="21" value="0015"/>
    <field name="udp.checksum_coverage" showname="Checksum coverage: 21" hide="yes" size="0" pos="40" show="21"/>
    <field name="udp.checksum" showname="Checksum: 0x4984 [validation disabled]" size="2" pos="42" show="18820" value="4984">
      <field name="udp.checksum_good" showname="Good Checksum: False" size="2" pos="42" show="0" value="4984"/>
      <field name="udp.checksum_bad" showname="Bad Checksum: False" size="2" pos="42" show="0" value="4984"/>
    </field>
    <field name="udp.stream" showname="Stream index: 0" size="0" pos="44" show="0"/>
  </proto>
  <proto name="rtp" showname="Real-Time Transport Protocol" size="13" pos="44">
    <field name="rtp.version" showname="10.. .... = Version: RFC 1889 Version (2)" size="1" pos="44" show="2" value="2" unmaskedvalue="80"/>
    <field name="rtp.padding" showname="..0. .... = Padding: False" size="1" pos="44" show="0" value="0" unmaskedvalue="80"/>
    <field name="rtp.ext" showname="...0 .... = Extension: False" size="1" pos="44" show="0" value="0" unmaskedvalue="80"/>
    <field name="rtp.cc" showname=".... 0000 = Contributing source identifiers count: 0" size="1" pos="44" show="0" value="0" unmaskedvalue="80"/>
    <field name="rtp.marker" showname="0... .... = Marker: False" size="1" pos="45" show="0" value="0" unmaskedvalue="04"/>
    <field name="rtp.p_type" showname="Payload type: ITU-T G.723 (4)" size="1" pos="45" show="4" value="4" unmaskedvalue="04"/>
    <field name="rtp.seq" showname="Sequence number: 787" size="2" pos="46" show="787" value="0313"/>
    <field name="rtp.timestamp" showname="Timestamp: 188880" size="4" pos="48" show="188880" value="0002e1d0"/>
    <field name="rtp.ssrc" showname="Synchronization Source identifier: 0x00000003 (3)" size="4" pos="52" show="3" value="00000003"/>
    <field name="rtp.payload" showname="Payload: 0a" size="1" pos="56" show="0a" value="0a"/>
  </proto>
</packet>



<packet>
  <proto name="geninfo" pos="0" showname="General information" size="57">
    <field name="num" pos="0" show="1" showname="Number" value="1" size="57"/>
    <field name="len" pos="0" show="57" showname="Frame Length" value="39" size="57"/>
    <field name="caplen" pos="0" show="57" showname="Captured Length" value="39" size="57"/>
    <field name="timestamp" pos="0" show="Jun 22, 2016 16:32:25.639551000 MSK" showname="Captured Time" value="1466602345.639551000" size="57"/>
  </proto>
  <proto name="frame" showname="Frame 1: 57 bytes on wire (456 bits), 57 bytes captured (456 bits)" size="57" pos="0">
    <field name="frame.encap_type" showname="Encapsulation type: Linux cooked-mode capture (25)" size="0" pos="0" show="25"/>
    <field name="frame.time" showname="Arrival Time: Jun 22, 2016 16:32:25.639551000 MSK" size="0" pos="0" show="Jun 22, 2016 16:32:25.639551000 MSK"/>
    <field name="frame.offset_shift" showname="Time shift for this packet: 0.000000000 seconds" size="0" pos="0" show="0.000000000"/>
    <field name="frame.time_epoch" showname="Epoch Time: 1466602345.639551000 seconds" size="0" pos="0" show="1466602345.639551000"/>
    <field name="frame.time_delta" showname="Time delta from previous captured frame: 0.000000000 seconds" size="0" pos="0" show="0.000000000"/>
    <field name="frame.time_delta_displayed" showname="Time delta from previous displayed frame: 0.000000000 seconds" size="0" pos="0" show="0.000000000"/>
    <field name="frame.time_relative" showname="Time since reference or first frame: 0.000000000 seconds" size="0" pos="0" show="0.000000000"/>
    <field name="frame.number" showname="Frame Number: 1" size="0" pos="0" show="1"/>
    <field name="frame.len" showname="Frame Length: 57 bytes (456 bits)" size="0" pos="0" show="57"/>
    <field name="frame.cap_len" showname="Capture Length: 57 bytes (456 bits)" size="0" pos="0" show="57"/>
    <field name="frame.marked" showname="Frame is marked: False" size="0" pos="0" show="0"/>
    <field name="frame.ignored" showname="Frame is ignored: False" size="0" pos="0" show="0"/>
    <field name="frame.protocols" showname="Protocols in frame: sll:ethertype:ip:udp:rtp" size="0" pos="0" show="sll:ethertype:ip:udp:rtp"/>
    <field name="frame.coloring_rule.name" showname="Coloring Rule Name: UDP" size="0" pos="0" show="UDP"/>
    <field name="frame.coloring_rule.string" showname="Coloring Rule String: udp" size="0" pos="0" show="udp"/>
  </proto>
  <proto name="sll" showname="Linux cooked capture" size="16" pos="0">
    <field name="sll.pkttype" showname="Packet type: Unicast to us (0)" size="2" pos="0" show="0" value="0000"/>
    <field name="sll.hatype" showname="Link-layer address type: 772" size="2" pos="2" show="772" value="0304"/>
    <field name="sll.halen" showname="Link-layer address length: 6" size="2" pos="4" show="6" value="0006"/>
    <field name="sll.src.eth" showname="Source: 00:00:00_00:00:00 (00:00:00:00:00:00)" size="6" pos="6" show="00:00:00:00:00:00" value="000000000000"/>
    <field name="sll.etype" showname="Protocol: IP (0x0800)" size="2" pos="14" show="2048" value="0800"/>
  </proto>
  <proto name="ip" showname="Internet Protocol Version 4, Src: 192.168.100.6 (192.168.100.6), Dst: 192.168.100.6 (192.168.100.6)" size="20" pos="16">
    <field name="ip.version" showname="Version: 4" size="1" pos="16" show="4" value="45"/>
    <field name="ip.hdr_len" showname="Header Length: 20 bytes" size="1" pos="16" show="20" value="45"/>
    <field name="ip.dsfield" showname="Differentiated Services Field: 0x00 (DSCP 0x00: Default; ECN: 0x00: Not-ECT (Not ECN-Capable Transport))" size="1" pos="17" show="0" value="00">
      <field name="ip.dsfield.dscp" showname="0000 00.. = Differentiated Services Codepoint: Default (0x00)" size="1" pos="17" show="0" value="0" unmaskedvalue="00"/>
      <field name="ip.dsfield.ecn" showname=".... ..00 = Explicit Congestion Notification: Not-ECT (Not ECN-Capable Transport) (0x00)" size="1" pos="17" show="0" value="0" unmaskedvalue="00"/>
    </field>
    <field name="ip.len" showname="Total Length: 41" size="2" pos="18" show="41" value="0029"/>
    <field name="ip.id" showname="Identification: 0x4358 (17240)" size="2" pos="20" show="17240" value="4358"/>
    <field name="ip.flags" showname="Flags: 0x02 (Don&apos;t Fragment)" size="1" pos="22" show="2" value="40">
      <field name="ip.flags.rb" showname="0... .... = Reserved bit: Not set" size="1" pos="22" show="0" value="40"/>
      <field name="ip.flags.df" showname=".1.. .... = Don&apos;t fragment: Set" size="1" pos="22" show="1" value="40"/>
      <field name="ip.flags.mf" showname="..0. .... = More fragments: Not set" size="1" pos="22" show="0" value="40"/>
    </field>
    <field name="ip.frag_offset" showname="Fragment offset: 0" size="2" pos="22" show="0" value="4000"/>
    <field name="ip.ttl" showname="Time to live: 64" size="1" pos="24" show="64" value="40"/>
    <field name="ip.proto" showname="Protocol: UDP (17)" size="1" pos="25" show="17" value="11"/>
    <field name="ip.checksum" showname="Header checksum: 0xae0e [validation disabled]" size="2" pos="26" show="44558" value="ae0e">
      <field name="ip.checksum_good" showname="Good: False" size="2" pos="26" show="0" value="ae0e"/>
      <field name="ip.checksum_bad" showname="Bad: False" size="2" pos="26" show="0" value="ae0e"/>
    </field>
    <field name="ip.src" showname="Source: 192.168.100.6 (192.168.100.6)" size="4" pos="28" show="192.168.100.6" value="c0a86406"/>
    <field name="ip.addr" showname="Source or Destination Address: 192.168.100.6 (192.168.100.6)" hide="yes" size="4" pos="28" show="192.168.100.6" value="c0a86406"/>
    <field name="ip.src_host" showname="Source Host: 192.168.100.6" hide="yes" size="4" pos="28" show="192.168.100.6" value="c0a86406"/>
    <field name="ip.host" showname="Source or Destination Host: 192.168.100.6" hide="yes" size="4" pos="28" show="192.168.100.6" value="c0a86406"/>
    <field name="ip.dst" showname="Destination: 192.168.100.6 (192.168.100.6)" size="4" pos="32" show="192.168.100.6" value="c0a86406"/>
    <field name="ip.addr" showname="Source or Destination Address: 192.168.100.6 (192.168.100.6)" hide="yes" size="4" pos="32" show="192.168.100.6" value="c0a86406"/>
    <field name="ip.dst_host" showname="Destination Host: 192.168.100.6" hide="yes" size="4" pos="32" show="192.168.100.6" value="c0a86406"/>
    <field name="ip.host" showname="Source or Destination Host: 192.168.100.6" hide="yes" size="4" pos="32" show="192.168.100.6" value="c0a86406"/>
    <field name="" show="Source GeoIP: Unknown" size="4" pos="28" value="c0a86406"/>
    <field name="" show="Destination GeoIP: Unknown" size="4" pos="32" value="c0a86406"/>
  </proto>
  <proto name="udp" showname="User Datagram Protocol, Src Port: 26000 (26000), Dst Port: 16600 (16600)" size="8" pos="36">
    <field name="udp.srcport" showname="Source Port: 26000 (26000)" size="2" pos="36" show="26000" value="6590"/>
    <field name="udp.dstport" showname="Destination Port: 16600 (16600)" size="2" pos="38" show="16600" value="40d8"/>
    <field name="udp.port" showname="Source or Destination Port: 26000" hide="yes" size="2" pos="36" show="26000" value="6590"/>
    <field name="udp.port" showname="Source or Destination Port: 16600" hide="yes" size="2" pos="38" show="16600" value="40d8"/>
    <field name="udp.length" showname="Length: 21" size="2" pos="40" show="21" value="0015"/>
    <field name="udp.checksum_coverage" showname="Checksum coverage: 21" hide="yes" size="0" pos="40" show="21"/>
    <field name="udp.checksum" showname="Checksum: 0x4984 [validation disabled]" size="2" pos="42" show="18820" value="4984">
      <field name="udp.checksum_good" showname="Good Checksum: False" size="2" pos="42" show="0" value="4984"/>
      <field name="udp.checksum_bad" showname="Bad Checksum: False" size="2" pos="42" show="0" value="4984"/>
    </field>
    <field name="udp.stream" showname="Stream index: 0" size="0" pos="44" show="0"/>
  </proto>
  <proto name="rtp" showname="Real-Time Transport Protocol" size="13" pos="44">
    <field name="rtp.version" showname="10.. .... = Version: RFC 1889 Version (2)" size="1" pos="44" show="2" value="2" unmaskedvalue="80"/>
    <field name="rtp.padding" showname="..0. .... = Padding: False" size="1" pos="44" show="0" value="0" unmaskedvalue="80"/>
    <field name="rtp.ext" showname="...0 .... = Extension: False" size="1" pos="44" show="0" value="0" unmaskedvalue="80"/>
    <field name="rtp.cc" showname=".... 0000 = Contributing source identifiers count: 0" size="1" pos="44" show="0" value="0" unmaskedvalue="80"/>
    <field name="rtp.marker" showname="0... .... = Marker: False" size="1" pos="45" show="0" value="0" unmaskedvalue="04"/>
    <field name="rtp.p_type" showname="Payload type: ITU-T G.723 (4)" size="1" pos="45" show="4" value="4" unmaskedvalue="04"/>
    <field name="rtp.seq" showname="Sequence number: 788" size="2" pos="46" show="788" value="0314"/>
    <field name="rtp.timestamp" showname="Timestamp: 189120" size="4" pos="48" show="189120" value="0002e2c0"/>
    <field name="rtp.ssrc" showname="Synchronization Source identifier: 0x00000003 (3)" size="4" pos="52" show="3" value="00000003"/>
    <field name="rtp.payload" showname="Payload: 0a" size="1" pos="56" show="0a" value="0a"/>
  </proto>
</packet>



<packet>
  <proto name="geninfo" pos="0" showname="General information" size="57">
    <field name="num" pos="0" show="1" showname="Number" value="1" size="57"/>
    <field name="len" pos="0" show="57" showname="Frame Length" value="39" size="57"/>
    <field name="caplen" pos="0" show="57" showname="Captured Length" value="39" size="57"/>
    <field name="timestamp" pos="0" show="Jun 22, 2016 16:32:25.639551000 MSK" showname="Captured Time" value="1466602345.639551000" size="57"/>
  </proto>
  <proto name="frame" showname="Frame 1: 57 bytes on wire (456 bits), 57 bytes captured (456 bits)" size="57" pos="0">
    <field name="frame.encap_type" showname="Encapsulation type: Linux cooked-mode capture (25)" size="0" pos="0" show="25"/>
    <field name="frame.time" showname="Arrival Time: Jun 22, 2016 16:32:25.639551000 MSK" size="0" pos="0" show="Jun 22, 2016 16:32:25.639551000 MSK"/>
    <field name="frame.offset_shift" showname="Time shift for this packet: 0.000000000 seconds" size="0" pos="0" show="0.000000000"/>
    <field name="frame.time_epoch" showname="Epoch Time: 1466602345.639551000 seconds" size="0" pos="0" show="1466602345.639551000"/>
    <field name="frame.time_delta" showname="Time delta from previous captured frame: 0.000000000 seconds" size="0" pos="0" show="0.000000000"/>
    <field name="frame.time_delta_displayed" showname="Time delta from previous displayed frame: 0.000000000 seconds" size="0" pos="0" show="0.000000000"/>
    <field name="frame.time_relative" showname="Time since reference or first frame: 0.000000000 seconds" size="0" pos="0" show="0.000000000"/>
    <field name="frame.number" showname="Frame Number: 1" size="0" pos="0" show="1"/>
    <field name="frame.len" showname="Frame Length: 57 bytes (456 bits)" size="0" pos="0" show="57"/>
    <field name="frame.cap_len" showname="Capture Length: 57 bytes (456 bits)" size="0" pos="0" show="57"/>
    <field name="frame.marked" showname="Frame is marked: False" size="0" pos="0" show="0"/>
    <field name="frame.ignored" showname="Frame is ignored: False" size="0" pos="0" show="0"/>
    <field name="frame.protocols" showname="Protocols in frame: sll:ethertype:ip:udp:rtp" size="0" pos="0" show="sll:ethertype:ip:udp:rtp"/>
    <field name="frame.coloring_rule.name" showname="Coloring Rule Name: UDP" size="0" pos="0" show="UDP"/>
    <field name="frame.coloring_rule.string" showname="Coloring Rule String: udp" size="0" pos="0" show="udp"/>
  </proto>
  <proto name="sll" showname="Linux cooked capture" size="16" pos="0">
    <field name="sll.pkttype" showname="Packet type: Unicast to us (0)" size="2" pos="0" show="0" value="0000"/>
    <field name="sll.hatype" showname="Link-layer address type: 772" size="2" pos="2" show="772" value="0304"/>
    <field name="sll.halen" showname="Link-layer address length: 6" size="2" pos="4" show="6" value="0006"/>
    <field name="sll.src.eth" showname="Source: 00:00:00_00:00:00 (00:00:00:00:00:00)" size="6" pos="6" show="00:00:00:00:00:00" value="000000000000"/>
    <field name="sll.etype" showname="Protocol: IP (0x0800)" size="2" pos="14" show="2048" value="0800"/>
  </proto>
  <proto name="ip" showname="Internet Protocol Version 4, Src: 192.168.100.6 (192.168.100.6), Dst: 192.168.100.6 (192.168.100.6)" size="20" pos="16">
    <field name="ip.version" showname="Version: 4" size="1" pos="16" show="4" value="45"/>
    <field name="ip.hdr_len" showname="Header Length: 20 bytes" size="1" pos="16" show="20" value="45"/>
    <field name="ip.dsfield" showname="Differentiated Services Field: 0x00 (DSCP 0x00: Default; ECN: 0x00: Not-ECT (Not ECN-Capable Transport))" size="1" pos="17" show="0" value="00">
      <field name="ip.dsfield.dscp" showname="0000 00.. = Differentiated Services Codepoint: Default (0x00)" size="1" pos="17" show="0" value="0" unmaskedvalue="00"/>
      <field name="ip.dsfield.ecn" showname=".... ..00 = Explicit Congestion Notification: Not-ECT (Not ECN-Capable Transport) (0x00)" size="1" pos="17" show="0" value="0" unmaskedvalue="00"/>
    </field>
    <field name="ip.len" showname="Total Length: 41" size="2" pos="18" show="41" value="0029"/>
    <field name="ip.id" showname="Identification: 0x4358 (17240)" size="2" pos="20" show="17240" value="4358"/>
    <field name="ip.flags" showname="Flags: 0x02 (Don&apos;t Fragment)" size="1" pos="22" show="2" value="40">
      <field name="ip.flags.rb" showname="0... .... = Reserved bit: Not set" size="1" pos="22" show="0" value="40"/>
      <field name="ip.flags.df" showname=".1.. .... = Don&apos;t fragment: Set" size="1" pos="22" show="1" value="40"/>
      <field name="ip.flags.mf" showname="..0. .... = More fragments: Not set" size="1" pos="22" show="0" value="40"/>
    </field>
    <field name="ip.frag_offset" showname="Fragment offset: 0" size="2" pos="22" show="0" value="4000"/>
    <field name="ip.ttl" showname="Time to live: 64" size="1" pos="24" show="64" value="40"/>
    <field name="ip.proto" showname="Protocol: UDP (17)" size="1" pos="25" show="17" value="11"/>
    <field name="ip.checksum" showname="Header checksum: 0xae0e [validation disabled]" size="2" pos="26" show="44558" value="ae0e">
      <field name="ip.checksum_good" showname="Good: False" size="2" pos="26" show="0" value="ae0e"/>
      <field name="ip.checksum_bad" showname="Bad: False" size="2" pos="26" show="0" value="ae0e"/>
    </field>
    <field name="ip.src" showname="Source: 192.168.100.6 (192.168.100.6)" size="4" pos="28" show="192.168.100.6" value="c0a86406"/>
    <field name="ip.addr" showname="Source or Destination Address: 192.168.100.6 (192.168.100.6)" hide="yes" size="4" pos="28" show="192.168.100.6" value="c0a86406"/>
    <field name="ip.src_host" showname="Source Host: 192.168.100.6" hide="yes" size="4" pos="28" show="192.168.100.6" value="c0a86406"/>
    <field name="ip.host" showname="Source or Destination Host: 192.168.100.6" hide="yes" size="4" pos="28" show="192.168.100.6" value="c0a86406"/>
    <field name="ip.dst" showname="Destination: 192.168.100.6 (192.168.100.6)" size="4" pos="32" show="192.168.100.6" value="c0a86406"/>
    <field name="ip.addr" showname="Source or Destination Address: 192.168.100.6 (192.168.100.6)" hide="yes" size="4" pos="32" show="192.168.100.6" value="c0a86406"/>
    <field name="ip.dst_host" showname="Destination Host: 192.168.100.6" hide="yes" size="4" pos="32" show="192.168.100.6" value="c0a86406"/>
    <field name="ip.host" showname="Source or Destination Host: 192.168.100.6" hide="yes" size="4" pos="32" show="192.168.100.6" value="c0a86406"/>
    <field name="" show="Source GeoIP: Unknown" size="4" pos="28" value="c0a86406"/>
    <field name="" show="Destination GeoIP: Unknown" size="4" pos="32" value="c0a86406"/>
  </proto>
  <proto name="udp" showname="User Datagram Protocol, Src Port: 26000 (26000), Dst Port: 16600 (16600)" size="8" pos="36">
    <field name="udp.srcport" showname="Source Port: 26000 (26000)" size="2" pos="36" show="26000" value="6590"/>
    <field name="udp.dstport" showname="Destination Port: 16600 (16600)" size="2" pos="38" show="16600" value="40d8"/>
    <field name="udp.port" showname="Source or Destination Port: 26000" hide="yes" size="2" pos="36" show="26000" value="6590"/>
    <field name="udp.port" showname="Source or Destination Port: 16600" hide="yes" size="2" pos="38" show="16600" value="40d8"/>
    <field name="udp.length" showname="Length: 21" size="2" pos="40" show="21" value="0015"/>
    <field name="udp.checksum_coverage" showname="Checksum coverage: 21" hide="yes" size="0" pos="40" show="21"/>
    <field name="udp.checksum" showname="Checksum: 0x4984 [validation disabled]" size="2" pos="42" show="18820" value="4984">
      <field name="udp.checksum_good" showname="Good Checksum: False" size="2" pos="42" show="0" value="4984"/>
      <field name="udp.checksum_bad" showname="Bad Checksum: False" size="2" pos="42" show="0" value="4984"/>
    </field>
    <field name="udp.stream" showname="Stream index: 0" size="0" pos="44" show="0"/>
  </proto>
  <proto name="rtp" showname="Real-Time Transport Protocol" size="13" pos="44">
    <field name="rtp.version" showname="10.. .... = Version: RFC 1889 Version (2)" size="1" pos="44" show="2" value="2" unmaskedvalue="80"/>
    <field name="rtp.padding" showname="..0. .... = Padding: False" size="1" pos="44" show="0" value="0" unmaskedvalue="80"/>
    <field name="rtp.ext" showname="...0 .... = Extension: False" size="1" pos="44" show="0" value="0" unmaskedvalue="80"/>
    <field name="rtp.cc" showname=".... 0000 = Contributing source identifiers count: 0" size="1" pos="44" show="0" value="0" unmaskedvalue="80"/>
    <field name="rtp.marker" showname="0... .... = Marker: False" size="1" pos="45" show="0" value="0" unmaskedvalue="04"/>
    <field name="rtp.p_type" showname="Payload type: ITU-T G.723 (4)" size="1" pos="45" show="4" value="4" unmaskedvalue="04"/>
    <field name="rtp.seq" showname="Sequence number: 789" size="2" pos="46" show="789" value="0315"/>
    <field name="rtp.timestamp" showname="Timestamp: 189360" size="4" pos="48" show="189360" value="0002e3b0"/>
    <field name="rtp.ssrc" showname="Synchronization Source identifier: 0x00000003 (3)" size="4" pos="52" show="3" value="00000003"/>
    <field name="rtp.payload" showname="Payload: 0a" size="1" pos="56" show="0a" value="0a"/>
  </proto>
</packet>



<packet>
  <proto name="geninfo" pos="0" showname="General information" size="57">
    <field name="num" pos="0" show="1" showname="Number" value="1" size="57"/>
    <field name="len" pos="0" show="57" showname="Frame Length" value="39" size="57"/>
    <field name="caplen" pos="0" show="57" showname="Captured Length" value="39" size="57"/>
    <field name="timestamp" pos="0" show="Jun 22, 2016 16:32:25.639551000 MSK" showname="Captured Time" value="1466602345.639551000" size="57"/>
  </proto>
  <proto name="frame" showname="Frame 1: 57 bytes on wire (456 bits), 57 bytes captured (456 bits)" size="57" pos="0">
    <field name="frame.encap_type" showname="Encapsulation type: Linux cooked-mode capture (25)" size="0" pos="0" show="25"/>
    <field name="frame.time" showname="Arrival Time: Jun 22, 2016 16:32:25.639551000 MSK" size="0" pos="0" show="Jun 22, 2016 16:32:25.639551000 MSK"/>
    <field name="frame.offset_shift" showname="Time shift for this packet: 0.000000000 seconds" size="0" pos="0" show="0.000000000"/>
    <field name="frame.time_epoch" showname="Epoch Time: 1466602345.639551000 seconds" size="0" pos="0" show="1466602345.639551000"/>
    <field name="frame.time_delta" showname="Time delta from previous captured frame: 0.000000000 seconds" size="0" pos="0" show="0.000000000"/>
    <field name="frame.time_delta_displayed" showname="Time delta from previous displayed frame: 0.000000000 seconds" size="0" pos="0" show="0.000000000"/>
    <field name="frame.time_relative" showname="Time since reference or first frame: 0.000000000 seconds" size="0" pos="0" show="0.000000000"/>
    <field name="frame.number" showname="Frame Number: 1" size="0" pos="0" show="1"/>
    <field name="frame.len" showname="Frame Length: 57 bytes (456 bits)" size="0" pos="0" show="57"/>
    <field name="frame.cap_len" showname="Capture Length: 57 bytes (456 bits)" size="0" pos="0" show="57"/>
    <field name="frame.marked" showname="Frame is marked: False" size="0" pos="0" show="0"/>
    <field name="frame.ignored" showname="Frame is ignored: False" size="0" pos="0" show="0"/>
    <field name="frame.protocols" showname="Protocols in frame: sll:ethertype:ip:udp:rtp" size="0" pos="0" show="sll:ethertype:ip:udp:rtp"/>
    <field name="frame.coloring_rule.name" showname="Coloring Rule Name: UDP" size="0" pos="0" show="UDP"/>
    <field name="frame.coloring_rule.string" showname="Coloring Rule String: udp" size="0" pos="0" show="udp"/>
  </proto>
  <proto name="sll" showname="Linux cooked capture" size="16" pos="0">
    <field name="sll.pkttype" showname="Packet type: Unicast to us (0)" size="2" pos="0" show="0" value="0000"/>
    <field name="sll.hatype" showname="Link-layer address type: 772" size="2" pos="2" show="772" value="0304"/>
    <field name="sll.halen" showname="Link-layer address length: 6" size="2" pos="4" show="6" value="0006"/>
    <field name="sll.src.eth" showname="Source: 00:00:00_00:00:00 (00:00:00:00:00:00)" size="6" pos="6" show="00:00:00:00:00:00" value="000000000000"/>
    <field name="sll.etype" showname="Protocol: IP (0x0800)" size="2" pos="14" show="2048" value="0800"/>
  </proto>
  <proto name="ip" showname="Internet Protocol Version 4, Src: 192.168.100.6 (192.168.100.6), Dst: 192.168.100.6 (192.168.100.6)" size="20" pos="16">
    <field name="ip.version" showname="Version: 4" size="1" pos="16" show="4" value="45"/>
    <field name="ip.hdr_len" showname="Header Length: 20 bytes" size="1" pos="16" show="20" value="45"/>
    <field name="ip.dsfield" showname="Differentiated Services Field: 0x00 (DSCP 0x00: Default; ECN: 0x00: Not-ECT (Not ECN-Capable Transport))" size="1" pos="17" show="0" value="00">
      <field name="ip.dsfield.dscp" showname="0000 00.. = Differentiated Services Codepoint: Default (0x00)" size="1" pos="17" show="0" value="0" unmaskedvalue="00"/>
      <field name="ip.dsfield.ecn" showname=".... ..00 = Explicit Congestion Notification: Not-ECT (Not ECN-Capable Transport) (0x00)" size="1" pos="17" show="0" value="0" unmaskedvalue="00"/>
    </field>
    <field name="ip.len" showname="Total Length: 41" size="2" pos="18" show="41" value="0029"/>
    <field name="ip.id" showname="Identification: 0x4358 (17240)" size="2" pos="20" show="17240" value="4358"/>
    <field name="ip.flags" showname="Flags: 0x02 (Don&apos;t Fragment)" size="1" pos="22" show="2" value="40">
      <field name="ip.flags.rb" showname="0... .... = Reserved bit: Not set" size="1" pos="22" show="0" value="40"/>
      <field name="ip.flags.df" showname=".1.. .... = Don&apos;t fragment: Set" size="1" pos="22" show="1" value="40"/>
      <field name="ip.flags.mf" showname="..0. .... = More fragments: Not set" size="1" pos="22" show="0" value="40"/>
    </field>
    <field name="ip.frag_offset" showname="Fragment offset: 0" size="2" pos="22" show="0" value="4000"/>
    <field name="ip.ttl" showname="Time to live: 64" size="1" pos="24" show="64" value="40"/>
    <field name="ip.proto" showname="Protocol: UDP (17)" size="1" pos="25" show="17" value="11"/>
    <field name="ip.checksum" showname="Header checksum: 0xae0e [validation disabled]" size="2" pos="26" show="44558" value="ae0e">
      <field name="ip.checksum_good" showname="Good: False" size="2" pos="26" show="0" value="ae0e"/>
      <field name="ip.checksum_bad" showname="Bad: False" size="2" pos="26" show="0" value="ae0e"/>
    </field>
    <field name="ip.src" showname="Source: 192.168.100.6 (192.168.100.6)" size="4" pos="28" show="192.168.100.6" value="c0a86406"/>
    <field name="ip.addr" showname="Source or Destination Address: 192.168.100.6 (192.168.100.6)" hide="yes" size="4" pos="28" show="192.168.100.6" value="c0a86406"/>
    <field name="ip.src_host" showname="Source Host: 192.168.100.6" hide="yes" size="4" pos="28" show="192.168.100.6" value="c0a86406"/>
    <field name="ip.host" showname="Source or Destination Host: 192.168.100.6" hide="yes" size="4" pos="28" show="192.168.100.6" value="c0a86406"/>
    <field name="ip.dst" showname="Destination: 192.168.100.6 (192.168.100.6)" size="4" pos="32" show="192.168.100.6" value="c0a86406"/>
    <field name="ip.addr" showname="Source or Destination Address: 192.168.100.6 (192.168.100.6)" hide="yes" size="4" pos="32" show="192.168.100.6" value="c0a86406"/>
    <field name="ip.dst_host" showname="Destination Host: 192.168.100.6" hide="yes" size="4" pos="32" show="192.168.100.6" value="c0a86406"/>
    <field name="ip.host" showname="Source or Destination Host: 192.168.100.6" hide="yes" size="4" pos="32" show="192.168.100.6" value="c0a86406"/>
    <field name="" show="Source GeoIP: Unknown" size="4" pos="28" value="c0a86406"/>
    <field name="" show="Destination GeoIP: Unknown" size="4" pos="32" value="c0a86406"/>
  </proto>
  <proto name="udp" showname="User Datagram Protocol, Src Port: 26000 (26000), Dst Port: 16600 (16600)" size="8" pos="36">
    <field name="udp.srcport" showname="Source Port: 26000 (26000)" size="2" pos="36" show="26000" value="6590"/>
    <field name="udp.dstport" showname="Destination Port: 16600 (16600)" size="2" pos="38" show="16600" value="40d8"/>
    <field name="udp.port" showname="Source or Destination Port: 26000" hide="yes" size="2" pos="36" show="26000" value="6590"/>
    <field name="udp.port" showname="Source or Destination Port: 16600" hide="yes" size="2" pos="38" show="16600" value="40d8"/>
    <field name="udp.length" showname="Length: 21" size="2" pos="40" show="21" value="0015"/>
    <field name="udp.checksum_coverage" showname="Checksum coverage: 21" hide="yes" size="0" pos="40" show="21"/>
    <field name="udp.checksum" showname="Checksum: 0x4984 [validation disabled]" size="2" pos="42" show="18820" value="4984">
      <field name="udp.checksum_good" showname="Good Checksum: False" size="2" pos="42" show="0" value="4984"/>
      <field name="udp.checksum_bad" showname="Bad Checksum: False" size="2" pos="42" show="0" value="4984"/>
    </field>
    <field name="udp.stream" showname="Stream index: 0" size="0" pos="44" show="0"/>
  </proto>
  <proto name="rtp" showname="Real-Time Transport Protocol" size="13" pos="44">
    <field name="rtp.version" showname="10.. .... = Version: RFC 1889 Version (2)" size="1" pos="44" show="2" value="2" unmaskedvalue="80"/>
    <field name="rtp.padding" showname="..0. .... = Padding: False" size="1" pos="44" show="0" value="0" unmaskedvalue="80"/>
    <field name="rtp.ext" showname="...0 .... = Extension: False" size="1" pos="44" show="0" value="0" unmaskedvalue="80"/>
    <field name="rtp.cc" showname=".... 0000 = Contributing source identifiers count: 0" size="1" pos="44" show="0" value="0" unmaskedvalue="80"/>
    <field name="rtp.marker" showname="0... .... = Marker: False" size="1" pos="45" show="0" value="0" unmaskedvalue="04"/>
    <field name="rtp.p_type" showname="Payload type: ITU-T G.723 (4)" size="1" pos="45" show="4" value="4" unmaskedvalue="04"/>
    <field name="rtp.seq" showname="Sequence number: 790" size="2" pos="46" show="790" value="0316"/>
    <field name="rtp.timestamp" showname="Timestamp: 189600" size="4" pos="48" show="189600" value="0002e4a0"/>
    <field name="rtp.ssrc" showname="Synchronization Source identifier: 0x00000003 (3)" size="4" pos="52" show="3" value="00000003"/>
    <field name="rtp.payload" showname="Payload: 0a" size="1" pos="56" show="0a" value="0a"/>
  </proto>
</packet>

</pdml>
