<?xml version="1.0"?>
<?xml-stylesheet type="text/xsl" href="pdml2html.xsl"?>
<!-- You can find pdml2html.xsl in /usr/share/wireshark or at http://anonsvn.wireshark.org/trunk/wireshark/pdml2html.xsl. -->
<pdml version="0" creator="wireshark/1.12.1" time="Wed Jun 22 12:36:47 2016" capture_file="/home/papachappa/Загрузки/on.pcap">
<packet>
  <proto name="geninfo" pos="0" showname="General information" size="1066">
    <field name="num" pos="0" show="1295" showname="Number" value="50f" size="1066"/>
    <field name="len" pos="0" show="1066" showname="Frame Length" value="42a" size="1066"/>
    <field name="caplen" pos="0" show="1066" showname="Captured Length" value="42a" size="1066"/>
    <field name="timestamp" pos="0" show="Jan  4, 2013 08:45:22.098523000 MSK" showname="Captured Time" value="1357274722.098523000" size="1066"/>
  </proto>
  <proto name="frame" showname="Frame 1295: 1066 bytes on wire (8528 bits), 1066 bytes captured (8528 bits)" size="1066" pos="0">
    <field name="frame.encap_type" showname="Encapsulation type: Ethernet (1)" size="0" pos="0" show="1"/>
    <field name="frame.time" showname="Arrival Time: Jan  4, 2013 08:45:22.098523000 MSK" size="0" pos="0" show="Jan  4, 2013 08:45:22.098523000 MSK"/>
    <field name="frame.offset_shift" showname="Time shift for this packet: 0.000000000 seconds" size="0" pos="0" show="0.000000000"/>
    <field name="frame.time_epoch" showname="Epoch Time: 1357274722.098523000 seconds" size="0" pos="0" show="1357274722.098523000"/>
    <field name="frame.time_delta" showname="Time delta from previous captured frame: 0.016052000 seconds" size="0" pos="0" show="0.016052000"/>
    <field name="frame.time_delta_displayed" showname="Time delta from previous displayed frame: 12.927788000 seconds" size="0" pos="0" show="12.927788000"/>
    <field name="frame.time_relative" showname="Time since reference or first frame: 26.597705000 seconds" size="0" pos="0" show="26.597705000"/>
    <field name="frame.number" showname="Frame Number: 1295" size="0" pos="0" show="1295"/>
    <field name="frame.len" showname="Frame Length: 1066 bytes (8528 bits)" size="0" pos="0" show="1066"/>
    <field name="frame.cap_len" showname="Capture Length: 1066 bytes (8528 bits)" size="0" pos="0" show="1066"/>
    <field name="frame.marked" showname="Frame is marked: False" size="0" pos="0" show="0"/>
    <field name="frame.ignored" showname="Frame is ignored: False" size="0" pos="0" show="0"/>
    <field name="frame.protocols" showname="Protocols in frame: eth:ethertype:ip:udp:rtp:g723" size="0" pos="0" show="eth:ethertype:ip:udp:rtp:g723"/>
    <field name="frame.coloring_rule.name" showname="Coloring Rule Name: UDP" size="0" pos="0" show="UDP"/>
    <field name="frame.coloring_rule.string" showname="Coloring Rule String: udp" size="0" pos="0" show="udp"/>
  </proto>
  <proto name="eth" showname="Ethernet II, Src: Wiznet_15:ce:e3 (00:08:dc:15:ce:e3), Dst: Dell_e7:b6:7e (bc:30:5b:e7:b6:7e)" size="14" pos="0">
    <field name="eth.dst" showname="Destination: Dell_e7:b6:7e (bc:30:5b:e7:b6:7e)" size="6" pos="0" show="bc:30:5b:e7:b6:7e" value="bc305be7b67e">
      <field name="eth.dst_resolved" showname="Destination (resolved): Dell_e7:b6:7e" hide="yes" size="6" pos="0" show="Dell_e7:b6:7e" value="bc305be7b67e"/>
      <field name="eth.addr" showname="Address: Dell_e7:b6:7e (bc:30:5b:e7:b6:7e)" size="6" pos="0" show="bc:30:5b:e7:b6:7e" value="bc305be7b67e"/>
      <field name="eth.addr_resolved" showname="Address (resolved): Dell_e7:b6:7e" hide="yes" size="6" pos="0" show="Dell_e7:b6:7e" value="bc305be7b67e"/>
      <field name="eth.lg" showname=".... ..0. .... .... .... .... = LG bit: Globally unique address (factory default)" size="3" pos="0" show="0" value="0" unmaskedvalue="bc305b"/>
      <field name="eth.ig" showname=".... ...0 .... .... .... .... = IG bit: Individual address (unicast)" size="3" pos="0" show="0" value="0" unmaskedvalue="bc305b"/>
    </field>
    <field name="eth.src" showname="Source: Wiznet_15:ce:e3 (00:08:dc:15:ce:e3)" size="6" pos="6" show="00:08:dc:15:ce:e3" value="0008dc15cee3">
      <field name="eth.src_resolved" showname="Source (resolved): Wiznet_15:ce:e3" hide="yes" size="6" pos="6" show="Wiznet_15:ce:e3" value="0008dc15cee3"/>
      <field name="eth.addr" showname="Address: Wiznet_15:ce:e3 (00:08:dc:15:ce:e3)" size="6" pos="6" show="00:08:dc:15:ce:e3" value="0008dc15cee3"/>
      <field name="eth.addr_resolved" showname="Address (resolved): Wiznet_15:ce:e3" hide="yes" size="6" pos="6" show="Wiznet_15:ce:e3" value="0008dc15cee3"/>
      <field name="eth.lg" showname=".... ..0. .... .... .... .... = LG bit: Globally unique address (factory default)" size="3" pos="6" show="0" value="0" unmaskedvalue="0008dc"/>
      <field name="eth.ig" showname=".... ...0 .... .... .... .... = IG bit: Individual address (unicast)" size="3" pos="6" show="0" value="0" unmaskedvalue="0008dc"/>
    </field>
    <field name="eth.type" showname="Type: IP (0x0800)" size="2" pos="12" show="2048" value="0800"/>
  </proto>
  <proto name="ip" showname="Internet Protocol Version 4, Src: 192.168.1.200 (192.168.1.200), Dst: 192.168.1.202 (192.168.1.202)" size="20" pos="14">
    <field name="ip.version" showname="Version: 4" size="1" pos="14" show="4" value="45"/>
    <field name="ip.hdr_len" showname="Header Length: 20 bytes" size="1" pos="14" show="20" value="45"/>
    <field name="ip.dsfield" showname="Differentiated Services Field: 0x00 (DSCP 0x00: Default; ECN: 0x00: Not-ECT (Not ECN-Capable Transport))" size="1" pos="15" show="0" value="00">
      <field name="ip.dsfield.dscp" showname="0000 00.. = Differentiated Services Codepoint: Default (0x00)" size="1" pos="15" show="0" value="0" unmaskedvalue="00"/>
      <field name="ip.dsfield.ecn" showname=".... ..00 = Explicit Congestion Notification: Not-ECT (Not ECN-Capable Transport) (0x00)" size="1" pos="15" show="0" value="0" unmaskedvalue="00"/>
    </field>
    <field name="ip.len" showname="Total Length: 1052" size="2" pos="16" show="1052" value="041c"/>
    <field name="ip.id" showname="Identification: 0x04ac (1196)" size="2" pos="18" show="1196" value="04ac"/>
    <field name="ip.flags" showname="Flags: 0x02 (Don&apos;t Fragment)" size="1" pos="20" show="2" value="40">
      <field name="ip.flags.rb" showname="0... .... = Reserved bit: Not set" size="1" pos="20" show="0" value="40"/>
      <field name="ip.flags.df" showname=".1.. .... = Don&apos;t fragment: Set" size="1" pos="20" show="1" value="40"/>
      <field name="ip.flags.mf" showname="..0. .... = More fragments: Not set" size="1" pos="20" show="0" value="40"/>
    </field>
    <field name="ip.frag_offset" showname="Fragment offset: 0" size="2" pos="20" show="0" value="4000"/>
    <field name="ip.ttl" showname="Time to live: 128" size="1" pos="22" show="128" value="80"/>
    <field name="ip.proto" showname="Protocol: UDP (17)" size="1" pos="23" show="17" value="11"/>
    <field name="ip.checksum" showname="Header checksum: 0x6d42 [validation disabled]" size="2" pos="24" show="27970" value="6d42">
      <field name="ip.checksum_good" showname="Good: False" size="2" pos="24" show="0" value="6d42"/>
      <field name="ip.checksum_bad" showname="Bad: False" size="2" pos="24" show="0" value="6d42"/>
    </field>
    <field name="ip.src" showname="Source: 192.168.1.200 (192.168.1.200)" size="4" pos="26" show="192.168.1.200" value="c0a801c8"/>
    <field name="ip.addr" showname="Source or Destination Address: 192.168.1.200 (192.168.1.200)" hide="yes" size="4" pos="26" show="192.168.1.200" value="c0a801c8"/>
    <field name="ip.src_host" showname="Source Host: 192.168.1.200" hide="yes" size="4" pos="26" show="192.168.1.200" value="c0a801c8"/>
    <field name="ip.host" showname="Source or Destination Host: 192.168.1.200" hide="yes" size="4" pos="26" show="192.168.1.200" value="c0a801c8"/>
    <field name="ip.dst" showname="Destination: 192.168.1.202 (192.168.1.202)" size="4" pos="30" show="192.168.1.202" value="c0a801ca"/>
    <field name="ip.addr" showname="Source or Destination Address: 192.168.1.202 (192.168.1.202)" hide="yes" size="4" pos="30" show="192.168.1.202" value="c0a801ca"/>
    <field name="ip.dst_host" showname="Destination Host: 192.168.1.202" hide="yes" size="4" pos="30" show="192.168.1.202" value="c0a801ca"/>
    <field name="ip.host" showname="Source or Destination Host: 192.168.1.202" hide="yes" size="4" pos="30" show="192.168.1.202" value="c0a801ca"/>
    <field name="" show="Source GeoIP: Unknown" size="4" pos="26" value="c0a801c8"/>
    <field name="" show="Destination GeoIP: Unknown" size="4" pos="30" value="c0a801ca"/>
  </proto>
  <proto name="udp" showname="User Datagram Protocol, Src Port: 8 (8), Dst Port: 8080 (8080)" size="8" pos="34">
    <field name="udp.srcport" showname="Source Port: 8 (8)" size="2" pos="34" show="8" value="0008"/>
    <field name="udp.dstport" showname="Destination Port: 8080 (8080)" size="2" pos="36" show="8080" value="1f90"/>
    <field name="udp.port" showname="Source or Destination Port: 8" hide="yes" size="2" pos="34" show="8" value="0008"/>
    <field name="udp.port" showname="Source or Destination Port: 8080" hide="yes" size="2" pos="36" show="8080" value="1f90"/>
    <field name="udp.length" showname="Length: 1032" size="2" pos="38" show="1032" value="0408"/>
    <field name="udp.checksum_coverage" showname="Checksum coverage: 1032" hide="yes" size="0" pos="38" show="1032"/>
    <field name="udp.checksum" showname="Checksum: 0x07f5 [validation disabled]" size="2" pos="40" show="2037" value="07f5">
      <field name="udp.checksum_good" showname="Good Checksum: False" size="2" pos="40" show="0" value="07f5"/>
      <field name="udp.checksum_bad" showname="Bad Checksum: False" size="2" pos="40" show="0" value="07f5"/>
    </field>
    <field name="udp.stream" showname="Stream index: 6" size="0" pos="42" show="6"/>
  </proto>
  <proto name="rtp" showname="Real-Time Transport Protocol" size="1024" pos="42">
    <field name="rtp.version" showname="10.. .... = Version: RFC 1889 Version (2)" size="1" pos="42" show="2" value="2" unmaskedvalue="aa"/>
    <field name="rtp.padding" showname="..1. .... = Padding: True" size="1" pos="42" show="1" value="1" unmaskedvalue="aa"/>
    <field name="rtp.ext" showname="...0 .... = Extension: False" size="1" pos="42" show="0" value="0" unmaskedvalue="aa"/>
    <field name="rtp.cc" showname=".... 1010 = Contributing source identifiers count: 10" size="1" pos="42" show="10" value="A" unmaskedvalue="aa"/>
    <field name="rtp.marker" showname="1... .... = Marker: True" size="1" pos="43" show="1" value="1" unmaskedvalue="84"/>
    <field name="rtp.p_type" showname="Payload type: ITU-T G.723 (4)" size="1" pos="43" show="4" value="4" unmaskedvalue="84"/>
    <field name="rtp.seq" showname="Sequence number: 46479" size="2" pos="44" show="46479" value="b58f"/>
    <field name="rtp.timestamp" showname="Timestamp: 3770392906" size="4" pos="46" show="3770392906" value="e0bba14a"/>
    <field name="rtp.ssrc" showname="Synchronization Source identifier: 0x43f6af95 (1140240277)" size="4" pos="50" show="1140240277" value="43f6af95"/>
    <field name="rtp.csrc.items" showname="Contributing Source identifiers (10 items)" size="40" pos="54" show="" value="">
      <field name="rtp.csrc.item" showname="CSRC item 0: 0xDE93B269" size="4" pos="54" show="3734221417" value="de93b269"/>
      <field name="rtp.csrc.item" showname="CSRC item 1: 0xC9B0D3E2" size="4" pos="58" show="3383808994" value="c9b0d3e2"/>
      <field name="rtp.csrc.item" showname="CSRC item 2: 0xB471ED90" size="4" pos="62" show="3027365264" value="b471ed90"/>
      <field name="rtp.csrc.item" showname="CSRC item 3: 0x1F043D6B" size="4" pos="66" show="520371563" value="1f043d6b"/>
      <field name="rtp.csrc.item" showname="CSRC item 4: 0x99ABC158" size="4" pos="70" show="2578170200" value="99abc158"/>
      <field name="rtp.csrc.item" showname="CSRC item 5: 0x887C25A6" size="4" pos="74" show="2289837478" value="887c25a6"/>
      <field name="rtp.csrc.item" showname="CSRC item 6: 0xF814307E" size="4" pos="78" show="4162072702" value="f814307e"/>
      <field name="rtp.csrc.item" showname="CSRC item 7: 0xB8300F99" size="4" pos="82" show="3090157465" value="b8300f99"/>
      <field name="rtp.csrc.item" showname="CSRC item 8: 0x5042F4C0" size="4" pos="86" show="1346565312" value="5042f4c0"/>
      <field name="rtp.csrc.item" showname="CSRC item 9: 0xAC32D8A9" size="4" pos="90" show="2889013417" value="ac32d8a9"/>
    </field>
    <field name="rtp.padding.data" showname="Padding data: 41a9c2a2058dfe8c5e8fb38b93a59710d3b18746b4e15275..." size="214" pos="851" show="41:a9:c2:a2:05:8d:fe:8c:5e:8f:b3:8b:93:a5:97:10:d3:b1:87:46:b4:e1:52:75:ed:49:48:78:5b:27:94:bf:ed:51:82:73:5e:4c:59:cd:01:19:5b:42:08:08:02:ec:10:c1:95:08:c2:4a:4f:a6:1f:b5:3f:36:71:11:3a:42:6b:e3:f0:73:62:ce:31:41:f6:a0:d0:10:81:82:04:06:54:ca:ba:3e:2b:48:dd:35:25:84:96:40:a5:84:0d:62:1e:39:f0:85:e4:e2:22:82:57:0d:2a:1e:96:2d:a4:42:ca:c7:c3:9b:d8:46:d5:03:f0:61:bf:c5:31:25:f0:19:7f:8a:52:0b:19:8a:06:0c:22:b0:2e:65:b6:0c:08:7a:a0:10:bf:75:11:6c:0c:9f:c1:80:e0:30:2b:42:0f:72:01:61:6d:83:c0:7e:fe:9a:b6:0c:d3:6a:2f:38:df:86:71:73:e2:10:78:08:1c:40:f3:43:e2:e8:5f:2f:74:2f:6f:6a:85:57:43:7e:0d:45:fe:98:73:b6:86:c1:93:db:4d:4a:d3:b0:e4:0f" value="41a9c2a2058dfe8c5e8fb38b93a59710d3b18746b4e15275ed4948785b2794bfed5182735e4c59cd01195b42080802ec10c19508c24a4fa61fb53f3671113a426be3f07362ce3141f6a0d0108182040654caba3e2b48dd3525849640a5840d621e39f085e4e22282570d2a1e962da442cac7c39bd846d503f061bfc53125f0197f8a520b198a060c22b02e65b60c087aa010bf75116c0c9fc180e0302b420f7201616d83c07efe9ab60cd36a2f38df867173e21078081c40f343e2e85f2f742f6f6a8557437e0d45fe9873b686c193db4d4ad3b0e40f"/>
    <field name="rtp.padding.count" showname="Padding count: 215" size="1" pos="1065" show="215" value="d7"/>
  </proto>
  <proto name="g723" showname="G.723" size="757" pos="94">
    <field name="g723.frame_size_and_codec" showname=".... ..10 = Frame size and codec type: SID frame (0x02)" size="1" pos="94" show="2" value="2" unmaskedvalue="a2"/>
    <field name="g723.lpc.b5b0" showname="1010 00.. = LPC_B5...LPC_B0: 0x28" size="1" pos="94" show="40" value="28" unmaskedvalue="a2"/>
  </proto>
</packet>

</pdml>
